
Calculator.elf:     file format elf32-avr

Sections:
Idx Name          Size      VMA       LMA       File off  Algn
  0 .text         000010ca  00000000  00000000  00000094  2**1
                  CONTENTS, ALLOC, LOAD, READONLY, CODE
  1 .data         0000003c  00800060  000010ca  0000115e  2**0
                  CONTENTS, ALLOC, LOAD, DATA
  2 .bss          00000144  0080009c  0080009c  0000119a  2**0
                  ALLOC
  3 .comment      00000030  00000000  00000000  0000119a  2**0
                  CONTENTS, READONLY
  4 .note.gnu.avr.deviceinfo 0000003c  00000000  00000000  000011cc  2**2
                  CONTENTS, READONLY
  5 .debug_info   000004e6  00000000  00000000  00001208  2**0
                  CONTENTS, READONLY, DEBUGGING
  6 .debug_abbrev 000004a3  00000000  00000000  000016ee  2**0
                  CONTENTS, READONLY, DEBUGGING
  7 .debug_line   00000116  00000000  00000000  00001b91  2**0
                  CONTENTS, READONLY, DEBUGGING
  8 .debug_str    00000196  00000000  00000000  00001ca7  2**0
                  CONTENTS, READONLY, DEBUGGING

Disassembly of section .text:

00000000 <__vectors>:
       0:	0c 94 2a 00 	jmp	0x54	; 0x54 <__ctors_end>
       4:	0c 94 47 00 	jmp	0x8e	; 0x8e <__bad_interrupt>
       8:	0c 94 47 00 	jmp	0x8e	; 0x8e <__bad_interrupt>
       c:	0c 94 47 00 	jmp	0x8e	; 0x8e <__bad_interrupt>
      10:	0c 94 47 00 	jmp	0x8e	; 0x8e <__bad_interrupt>
      14:	0c 94 47 00 	jmp	0x8e	; 0x8e <__bad_interrupt>
      18:	0c 94 47 00 	jmp	0x8e	; 0x8e <__bad_interrupt>
      1c:	0c 94 47 00 	jmp	0x8e	; 0x8e <__bad_interrupt>
      20:	0c 94 47 00 	jmp	0x8e	; 0x8e <__bad_interrupt>
      24:	0c 94 47 00 	jmp	0x8e	; 0x8e <__bad_interrupt>
      28:	0c 94 47 00 	jmp	0x8e	; 0x8e <__bad_interrupt>
      2c:	0c 94 47 00 	jmp	0x8e	; 0x8e <__bad_interrupt>
      30:	0c 94 47 00 	jmp	0x8e	; 0x8e <__bad_interrupt>
      34:	0c 94 47 00 	jmp	0x8e	; 0x8e <__bad_interrupt>
      38:	0c 94 47 00 	jmp	0x8e	; 0x8e <__bad_interrupt>
      3c:	0c 94 47 00 	jmp	0x8e	; 0x8e <__bad_interrupt>
      40:	0c 94 47 00 	jmp	0x8e	; 0x8e <__bad_interrupt>
      44:	0c 94 47 00 	jmp	0x8e	; 0x8e <__bad_interrupt>
      48:	0c 94 47 00 	jmp	0x8e	; 0x8e <__bad_interrupt>
      4c:	0c 94 47 00 	jmp	0x8e	; 0x8e <__bad_interrupt>
      50:	0c 94 47 00 	jmp	0x8e	; 0x8e <__bad_interrupt>

00000054 <__ctors_end>:
      54:	11 24       	eor	r1, r1
      56:	1f be       	out	0x3f, r1	; 63
      58:	cf e5       	ldi	r28, 0x5F	; 95
      5a:	d8 e0       	ldi	r29, 0x08	; 8
      5c:	de bf       	out	0x3e, r29	; 62
      5e:	cd bf       	out	0x3d, r28	; 61

00000060 <__do_copy_data>:
      60:	10 e0       	ldi	r17, 0x00	; 0
      62:	a0 e6       	ldi	r26, 0x60	; 96
      64:	b0 e0       	ldi	r27, 0x00	; 0
      66:	ea ec       	ldi	r30, 0xCA	; 202
      68:	f0 e1       	ldi	r31, 0x10	; 16
      6a:	02 c0       	rjmp	.+4      	; 0x70 <__do_copy_data+0x10>
      6c:	05 90       	lpm	r0, Z+
      6e:	0d 92       	st	X+, r0
      70:	ac 39       	cpi	r26, 0x9C	; 156
      72:	b1 07       	cpc	r27, r17
      74:	d9 f7       	brne	.-10     	; 0x6c <__do_copy_data+0xc>

00000076 <__do_clear_bss>:
      76:	21 e0       	ldi	r18, 0x01	; 1
      78:	ac e9       	ldi	r26, 0x9C	; 156
      7a:	b0 e0       	ldi	r27, 0x00	; 0
      7c:	01 c0       	rjmp	.+2      	; 0x80 <.do_clear_bss_start>

0000007e <.do_clear_bss_loop>:
      7e:	1d 92       	st	X+, r1

00000080 <.do_clear_bss_start>:
      80:	a0 3e       	cpi	r26, 0xE0	; 224
      82:	b2 07       	cpc	r27, r18
      84:	e1 f7       	brne	.-8      	; 0x7e <.do_clear_bss_loop>
      86:	0e 94 e1 05 	call	0xbc2	; 0xbc2 <main>
      8a:	0c 94 63 08 	jmp	0x10c6	; 0x10c6 <_exit>

0000008e <__bad_interrupt>:
      8e:	0c 94 00 00 	jmp	0	; 0x0 <__vectors>

00000092 <BUZZER_Status.part.0>:
      92:	41 e0       	ldi	r20, 0x01	; 1
      94:	66 e0       	ldi	r22, 0x06	; 6
      96:	82 e0       	ldi	r24, 0x02	; 2
      98:	0c 94 3d 02 	jmp	0x47a	; 0x47a <DIO_setPinValue>

0000009c <BUZZER_Init>:
      9c:	41 e0       	ldi	r20, 0x01	; 1
      9e:	66 e0       	ldi	r22, 0x06	; 6
      a0:	82 e0       	ldi	r24, 0x02	; 2
      a2:	0e 94 a8 01 	call	0x350	; 0x350 <DIO_setPinDir>
      a6:	40 e0       	ldi	r20, 0x00	; 0
      a8:	66 e0       	ldi	r22, 0x06	; 6
      aa:	82 e0       	ldi	r24, 0x02	; 2
      ac:	0c 94 3d 02 	jmp	0x47a	; 0x47a <DIO_setPinValue>

000000b0 <BUZZER_Status>:
      b0:	81 11       	cpse	r24, r1
      b2:	0c 94 49 00 	jmp	0x92	; 0x92 <BUZZER_Status.part.0>
      b6:	40 e0       	ldi	r20, 0x00	; 0
      b8:	66 e0       	ldi	r22, 0x06	; 6
      ba:	82 e0       	ldi	r24, 0x02	; 2
      bc:	0c 94 3d 02 	jmp	0x47a	; 0x47a <DIO_setPinValue>

000000c0 <BUZZER_SHORT_BEEP>:
      c0:	0e 94 49 00 	call	0x92	; 0x92 <BUZZER_Status.part.0>
      c4:	2f ef       	ldi	r18, 0xFF	; 255
      c6:	81 ee       	ldi	r24, 0xE1	; 225
      c8:	94 e0       	ldi	r25, 0x04	; 4
      ca:	21 50       	subi	r18, 0x01	; 1
      cc:	80 40       	sbci	r24, 0x00	; 0
      ce:	90 40       	sbci	r25, 0x00	; 0
      d0:	e1 f7       	brne	.-8      	; 0xca <BUZZER_SHORT_BEEP+0xa>
      d2:	00 c0       	rjmp	.+0      	; 0xd4 <BUZZER_SHORT_BEEP+0x14>
      d4:	00 00       	nop
      d6:	80 e0       	ldi	r24, 0x00	; 0
      d8:	0c 94 58 00 	jmp	0xb0	; 0xb0 <BUZZER_Status>

000000dc <BUZZER_BEEP_BEEP>:
      dc:	0e 94 49 00 	call	0x92	; 0x92 <BUZZER_Status.part.0>
      e0:	2f ef       	ldi	r18, 0xFF	; 255
      e2:	8a e6       	ldi	r24, 0x6A	; 106
      e4:	93 e0       	ldi	r25, 0x03	; 3
      e6:	21 50       	subi	r18, 0x01	; 1
      e8:	80 40       	sbci	r24, 0x00	; 0
      ea:	90 40       	sbci	r25, 0x00	; 0
      ec:	e1 f7       	brne	.-8      	; 0xe6 <BUZZER_BEEP_BEEP+0xa>
      ee:	00 c0       	rjmp	.+0      	; 0xf0 <BUZZER_BEEP_BEEP+0x14>
      f0:	00 00       	nop
      f2:	80 e0       	ldi	r24, 0x00	; 0
      f4:	0e 94 58 00 	call	0xb0	; 0xb0 <BUZZER_Status>
      f8:	2f e7       	ldi	r18, 0x7F	; 127
      fa:	85 eb       	ldi	r24, 0xB5	; 181
      fc:	91 e0       	ldi	r25, 0x01	; 1
      fe:	21 50       	subi	r18, 0x01	; 1
     100:	80 40       	sbci	r24, 0x00	; 0
     102:	90 40       	sbci	r25, 0x00	; 0
     104:	e1 f7       	brne	.-8      	; 0xfe <BUZZER_BEEP_BEEP+0x22>
     106:	00 c0       	rjmp	.+0      	; 0x108 <BUZZER_BEEP_BEEP+0x2c>
     108:	00 00       	nop
     10a:	0e 94 49 00 	call	0x92	; 0x92 <BUZZER_Status.part.0>
     10e:	2f ef       	ldi	r18, 0xFF	; 255
     110:	8a e6       	ldi	r24, 0x6A	; 106
     112:	93 e0       	ldi	r25, 0x03	; 3
     114:	21 50       	subi	r18, 0x01	; 1
     116:	80 40       	sbci	r24, 0x00	; 0
     118:	90 40       	sbci	r25, 0x00	; 0
     11a:	e1 f7       	brne	.-8      	; 0x114 <BUZZER_BEEP_BEEP+0x38>
     11c:	00 c0       	rjmp	.+0      	; 0x11e <BUZZER_BEEP_BEEP+0x42>
     11e:	00 00       	nop
     120:	80 e0       	ldi	r24, 0x00	; 0
     122:	0c 94 58 00 	jmp	0xb0	; 0xb0 <BUZZER_Status>

00000126 <IsOperator>:
     126:	98 2f       	mov	r25, r24
     128:	9d 7f       	andi	r25, 0xFD	; 253
     12a:	9d 32       	cpi	r25, 0x2D	; 45
     12c:	59 f0       	breq	.+22     	; 0x144 <IsOperator+0x1e>
     12e:	96 ed       	ldi	r25, 0xD6	; 214
     130:	98 0f       	add	r25, r24
     132:	92 30       	cpi	r25, 0x02	; 2
     134:	38 f0       	brcs	.+14     	; 0x144 <IsOperator+0x1e>
     136:	21 e0       	ldi	r18, 0x01	; 1
     138:	90 e0       	ldi	r25, 0x00	; 0
     13a:	84 32       	cpi	r24, 0x24	; 36
     13c:	09 f0       	breq	.+2      	; 0x140 <IsOperator+0x1a>
     13e:	20 e0       	ldi	r18, 0x00	; 0
     140:	82 2f       	mov	r24, r18
     142:	08 95       	ret
     144:	81 e0       	ldi	r24, 0x01	; 1
     146:	90 e0       	ldi	r25, 0x00	; 0
     148:	08 95       	ret

0000014a <GetOperatorWeight>:
     14a:	84 52       	subi	r24, 0x24	; 36
     14c:	8c 30       	cpi	r24, 0x0C	; 12
     14e:	48 f4       	brcc	.+18     	; 0x162 <GetOperatorWeight+0x18>
     150:	e8 2f       	mov	r30, r24
     152:	f0 e0       	ldi	r31, 0x00	; 0
     154:	e1 59       	subi	r30, 0x91	; 145
     156:	ff 4f       	sbci	r31, 0xFF	; 255
     158:	80 81       	ld	r24, Z
     15a:	08 2e       	mov	r0, r24
     15c:	00 0c       	add	r0, r0
     15e:	99 0b       	sbc	r25, r25
     160:	08 95       	ret
     162:	80 e0       	ldi	r24, 0x00	; 0
     164:	90 e0       	ldi	r25, 0x00	; 0
     166:	08 95       	ret

00000168 <HasHigherPrecedence>:
     168:	0f 93       	push	r16
     16a:	1f 93       	push	r17
     16c:	cf 93       	push	r28
     16e:	df 93       	push	r29
     170:	18 2f       	mov	r17, r24
     172:	06 2f       	mov	r16, r22
     174:	0e 94 a5 00 	call	0x14a	; 0x14a <GetOperatorWeight>
     178:	ec 01       	movw	r28, r24
     17a:	80 2f       	mov	r24, r16
     17c:	0e 94 a5 00 	call	0x14a	; 0x14a <GetOperatorWeight>
     180:	ac 01       	movw	r20, r24
     182:	c8 17       	cp	r28, r24
     184:	d9 07       	cpc	r29, r25
     186:	31 f4       	brne	.+12     	; 0x194 <HasHigherPrecedence+0x2c>
     188:	81 e0       	ldi	r24, 0x01	; 1
     18a:	90 e0       	ldi	r25, 0x00	; 0
     18c:	14 32       	cpi	r17, 0x24	; 36
     18e:	49 f4       	brne	.+18     	; 0x1a2 <HasHigherPrecedence+0x3a>
     190:	80 e0       	ldi	r24, 0x00	; 0
     192:	07 c0       	rjmp	.+14     	; 0x1a2 <HasHigherPrecedence+0x3a>
     194:	21 e0       	ldi	r18, 0x01	; 1
     196:	90 e0       	ldi	r25, 0x00	; 0
     198:	4c 17       	cp	r20, r28
     19a:	5d 07       	cpc	r21, r29
     19c:	0c f0       	brlt	.+2      	; 0x1a0 <HasHigherPrecedence+0x38>
     19e:	20 e0       	ldi	r18, 0x00	; 0
     1a0:	82 2f       	mov	r24, r18
     1a2:	df 91       	pop	r29
     1a4:	cf 91       	pop	r28
     1a6:	1f 91       	pop	r17
     1a8:	0f 91       	pop	r16
     1aa:	08 95       	ret

000001ac <InfixToPostfix>:
     1ac:	2f 92       	push	r2
     1ae:	3f 92       	push	r3
     1b0:	4f 92       	push	r4
     1b2:	5f 92       	push	r5
     1b4:	6f 92       	push	r6
     1b6:	7f 92       	push	r7
     1b8:	8f 92       	push	r8
     1ba:	9f 92       	push	r9
     1bc:	af 92       	push	r10
     1be:	bf 92       	push	r11
     1c0:	cf 92       	push	r12
     1c2:	df 92       	push	r13
     1c4:	ef 92       	push	r14
     1c6:	ff 92       	push	r15
     1c8:	0f 93       	push	r16
     1ca:	1f 93       	push	r17
     1cc:	cf 93       	push	r28
     1ce:	df 93       	push	r29
     1d0:	cd b7       	in	r28, 0x3d	; 61
     1d2:	de b7       	in	r29, 0x3e	; 62
     1d4:	c0 55       	subi	r28, 0x50	; 80
     1d6:	d1 09       	sbc	r29, r1
     1d8:	0f b6       	in	r0, 0x3f	; 63
     1da:	f8 94       	cli
     1dc:	de bf       	out	0x3e, r29	; 62
     1de:	0f be       	out	0x3f, r0	; 63
     1e0:	cd bf       	out	0x3d, r28	; 61
     1e2:	5c 01       	movw	r10, r24
     1e4:	80 e5       	ldi	r24, 0x50	; 80
     1e6:	90 e0       	ldi	r25, 0x00	; 0
     1e8:	0e 94 1c 07 	call	0xe38	; 0xe38 <malloc>
     1ec:	6c 01       	movw	r12, r24
     1ee:	f5 01       	movw	r30, r10
     1f0:	01 90       	ld	r0, Z+
     1f2:	00 20       	and	r0, r0
     1f4:	e9 f7       	brne	.-6      	; 0x1f0 <InfixToPostfix+0x44>
     1f6:	31 97       	sbiw	r30, 0x01	; 1
     1f8:	2f 01       	movw	r4, r30
     1fa:	4a 18       	sub	r4, r10
     1fc:	5b 08       	sbc	r5, r11
     1fe:	35 01       	movw	r6, r10
     200:	0f ef       	ldi	r16, 0xFF	; 255
     202:	1f ef       	ldi	r17, 0xFF	; 255
     204:	e1 2c       	mov	r14, r1
     206:	f1 2c       	mov	r15, r1
     208:	c3 01       	movw	r24, r6
     20a:	8a 19       	sub	r24, r10
     20c:	9b 09       	sbc	r25, r11
     20e:	84 15       	cp	r24, r4
     210:	95 05       	cpc	r25, r5
     212:	0c f0       	brlt	.+2      	; 0x216 <InfixToPostfix+0x6a>
     214:	6d c0       	rjmp	.+218    	; 0x2f0 <InfixToPostfix+0x144>
     216:	f3 01       	movw	r30, r6
     218:	31 90       	ld	r3, Z+
     21a:	3f 01       	movw	r6, r30
     21c:	f0 e2       	ldi	r31, 0x20	; 32
     21e:	3f 16       	cp	r3, r31
     220:	19 f0       	breq	.+6      	; 0x228 <InfixToPostfix+0x7c>
     222:	2c e2       	ldi	r18, 0x2C	; 44
     224:	32 12       	cpse	r3, r18
     226:	09 c0       	rjmp	.+18     	; 0x23a <InfixToPostfix+0x8e>
     228:	f6 01       	movw	r30, r12
     22a:	ee 0d       	add	r30, r14
     22c:	ff 1d       	adc	r31, r15
     22e:	80 e2       	ldi	r24, 0x20	; 32
     230:	80 83       	st	Z, r24
     232:	f7 01       	movw	r30, r14
     234:	31 96       	adiw	r30, 0x01	; 1
     236:	7f 01       	movw	r14, r30
     238:	e7 cf       	rjmp	.-50     	; 0x208 <InfixToPostfix+0x5c>
     23a:	83 2d       	mov	r24, r3
     23c:	0e 94 93 00 	call	0x126	; 0x126 <IsOperator>
     240:	89 2b       	or	r24, r25
     242:	01 f1       	breq	.+64     	; 0x284 <InfixToPostfix+0xd8>
     244:	46 01       	movw	r8, r12
     246:	8e 0c       	add	r8, r14
     248:	9f 1c       	adc	r9, r15
     24a:	74 01       	movw	r14, r8
     24c:	ec 18       	sub	r14, r12
     24e:	fd 08       	sbc	r15, r13
     250:	0f 3f       	cpi	r16, 0xFF	; 255
     252:	ff ef       	ldi	r31, 0xFF	; 255
     254:	1f 07       	cpc	r17, r31
     256:	29 f1       	breq	.+74     	; 0x2a2 <InfixToPostfix+0xf6>
     258:	e1 e0       	ldi	r30, 0x01	; 1
     25a:	f0 e0       	ldi	r31, 0x00	; 0
     25c:	ec 0f       	add	r30, r28
     25e:	fd 1f       	adc	r31, r29
     260:	e0 0f       	add	r30, r16
     262:	f1 1f       	adc	r31, r17
     264:	20 80       	ld	r2, Z
     266:	28 e2       	ldi	r18, 0x28	; 40
     268:	22 16       	cp	r2, r18
     26a:	d9 f0       	breq	.+54     	; 0x2a2 <InfixToPostfix+0xf6>
     26c:	63 2d       	mov	r22, r3
     26e:	82 2d       	mov	r24, r2
     270:	0e 94 b4 00 	call	0x168	; 0x168 <HasHigherPrecedence>
     274:	89 2b       	or	r24, r25
     276:	a9 f0       	breq	.+42     	; 0x2a2 <InfixToPostfix+0xf6>
     278:	01 50       	subi	r16, 0x01	; 1
     27a:	11 09       	sbc	r17, r1
     27c:	f4 01       	movw	r30, r8
     27e:	21 92       	st	Z+, r2
     280:	4f 01       	movw	r8, r30
     282:	e3 cf       	rjmp	.-58     	; 0x24a <InfixToPostfix+0x9e>
     284:	80 ed       	ldi	r24, 0xD0	; 208
     286:	83 0d       	add	r24, r3
     288:	8a 30       	cpi	r24, 0x0A	; 10
     28a:	40 f4       	brcc	.+16     	; 0x29c <InfixToPostfix+0xf0>
     28c:	f6 01       	movw	r30, r12
     28e:	ee 0d       	add	r30, r14
     290:	ff 1d       	adc	r31, r15
     292:	30 82       	st	Z, r3
     294:	c7 01       	movw	r24, r14
     296:	01 96       	adiw	r24, 0x01	; 1
     298:	7c 01       	movw	r14, r24
     29a:	b6 cf       	rjmp	.-148    	; 0x208 <InfixToPostfix+0x5c>
     29c:	98 e2       	ldi	r25, 0x28	; 40
     29e:	39 12       	cpse	r3, r25
     2a0:	0a c0       	rjmp	.+20     	; 0x2b6 <InfixToPostfix+0x10a>
     2a2:	0f 5f       	subi	r16, 0xFF	; 255
     2a4:	1f 4f       	sbci	r17, 0xFF	; 255
     2a6:	e1 e0       	ldi	r30, 0x01	; 1
     2a8:	f0 e0       	ldi	r31, 0x00	; 0
     2aa:	ec 0f       	add	r30, r28
     2ac:	fd 1f       	adc	r31, r29
     2ae:	e0 0f       	add	r30, r16
     2b0:	f1 1f       	adc	r31, r17
     2b2:	30 82       	st	Z, r3
     2b4:	a9 cf       	rjmp	.-174    	; 0x208 <InfixToPostfix+0x5c>
     2b6:	e9 e2       	ldi	r30, 0x29	; 41
     2b8:	3e 12       	cpse	r3, r30
     2ba:	a6 cf       	rjmp	.-180    	; 0x208 <InfixToPostfix+0x5c>
     2bc:	f6 01       	movw	r30, r12
     2be:	ee 0d       	add	r30, r14
     2c0:	ff 1d       	adc	r31, r15
     2c2:	7f 01       	movw	r14, r30
     2c4:	ec 18       	sub	r14, r12
     2c6:	fd 08       	sbc	r15, r13
     2c8:	c8 01       	movw	r24, r16
     2ca:	01 97       	sbiw	r24, 0x01	; 1
     2cc:	0f 3f       	cpi	r16, 0xFF	; 255
     2ce:	2f ef       	ldi	r18, 0xFF	; 255
     2d0:	12 07       	cpc	r17, r18
     2d2:	61 f0       	breq	.+24     	; 0x2ec <InfixToPostfix+0x140>
     2d4:	a1 e0       	ldi	r26, 0x01	; 1
     2d6:	b0 e0       	ldi	r27, 0x00	; 0
     2d8:	ac 0f       	add	r26, r28
     2da:	bd 1f       	adc	r27, r29
     2dc:	a0 0f       	add	r26, r16
     2de:	b1 1f       	adc	r27, r17
     2e0:	2c 91       	ld	r18, X
     2e2:	28 32       	cpi	r18, 0x28	; 40
     2e4:	19 f0       	breq	.+6      	; 0x2ec <InfixToPostfix+0x140>
     2e6:	8c 01       	movw	r16, r24
     2e8:	21 93       	st	Z+, r18
     2ea:	eb cf       	rjmp	.-42     	; 0x2c2 <InfixToPostfix+0x116>
     2ec:	8c 01       	movw	r16, r24
     2ee:	8c cf       	rjmp	.-232    	; 0x208 <InfixToPostfix+0x5c>
     2f0:	ce 01       	movw	r24, r28
     2f2:	01 96       	adiw	r24, 0x01	; 1
     2f4:	f8 01       	movw	r30, r16
     2f6:	31 96       	adiw	r30, 0x01	; 1
     2f8:	e8 0f       	add	r30, r24
     2fa:	f9 1f       	adc	r31, r25
     2fc:	d6 01       	movw	r26, r12
     2fe:	ae 0d       	add	r26, r14
     300:	bf 1d       	adc	r27, r15
     302:	e8 17       	cp	r30, r24
     304:	f9 07       	cpc	r31, r25
     306:	19 f0       	breq	.+6      	; 0x30e <InfixToPostfix+0x162>
     308:	22 91       	ld	r18, -Z
     30a:	2d 93       	st	X+, r18
     30c:	fa cf       	rjmp	.-12     	; 0x302 <InfixToPostfix+0x156>
     30e:	0c 0d       	add	r16, r12
     310:	1d 1d       	adc	r17, r13
     312:	f8 01       	movw	r30, r16
     314:	ee 0d       	add	r30, r14
     316:	ff 1d       	adc	r31, r15
     318:	11 82       	std	Z+1, r1	; 0x01
     31a:	c6 01       	movw	r24, r12
     31c:	c0 5b       	subi	r28, 0xB0	; 176
     31e:	df 4f       	sbci	r29, 0xFF	; 255
     320:	0f b6       	in	r0, 0x3f	; 63
     322:	f8 94       	cli
     324:	de bf       	out	0x3e, r29	; 62
     326:	0f be       	out	0x3f, r0	; 63
     328:	cd bf       	out	0x3d, r28	; 61
     32a:	df 91       	pop	r29
     32c:	cf 91       	pop	r28
     32e:	1f 91       	pop	r17
     330:	0f 91       	pop	r16
     332:	ff 90       	pop	r15
     334:	ef 90       	pop	r14
     336:	df 90       	pop	r13
     338:	cf 90       	pop	r12
     33a:	bf 90       	pop	r11
     33c:	af 90       	pop	r10
     33e:	9f 90       	pop	r9
     340:	8f 90       	pop	r8
     342:	7f 90       	pop	r7
     344:	6f 90       	pop	r6
     346:	5f 90       	pop	r5
     348:	4f 90       	pop	r4
     34a:	3f 90       	pop	r3
     34c:	2f 90       	pop	r2
     34e:	08 95       	ret

00000350 <DIO_setPinDir>:
     350:	44 23       	and	r20, r20
     352:	79 f1       	breq	.+94     	; 0x3b2 <DIO_setPinDir+0x62>
     354:	41 30       	cpi	r20, 0x01	; 1
     356:	09 f0       	breq	.+2      	; 0x35a <DIO_setPinDir+0xa>
     358:	5f c0       	rjmp	.+190    	; 0x418 <__EEPROM_REGION_LENGTH__+0x18>
     35a:	81 30       	cpi	r24, 0x01	; 1
     35c:	79 f0       	breq	.+30     	; 0x37c <DIO_setPinDir+0x2c>
     35e:	28 f0       	brcs	.+10     	; 0x36a <DIO_setPinDir+0x1a>
     360:	82 30       	cpi	r24, 0x02	; 2
     362:	a9 f0       	breq	.+42     	; 0x38e <DIO_setPinDir+0x3e>
     364:	83 30       	cpi	r24, 0x03	; 3
     366:	e1 f0       	breq	.+56     	; 0x3a0 <DIO_setPinDir+0x50>
     368:	08 95       	ret
     36a:	2a b3       	in	r18, 0x1a	; 26
     36c:	81 e0       	ldi	r24, 0x01	; 1
     36e:	90 e0       	ldi	r25, 0x00	; 0
     370:	01 c0       	rjmp	.+2      	; 0x374 <DIO_setPinDir+0x24>
     372:	88 0f       	add	r24, r24
     374:	6a 95       	dec	r22
     376:	ea f7       	brpl	.-6      	; 0x372 <DIO_setPinDir+0x22>
     378:	82 2b       	or	r24, r18
     37a:	2c c0       	rjmp	.+88     	; 0x3d4 <DIO_setPinDir+0x84>
     37c:	27 b3       	in	r18, 0x17	; 23
     37e:	81 e0       	ldi	r24, 0x01	; 1
     380:	90 e0       	ldi	r25, 0x00	; 0
     382:	01 c0       	rjmp	.+2      	; 0x386 <DIO_setPinDir+0x36>
     384:	88 0f       	add	r24, r24
     386:	6a 95       	dec	r22
     388:	ea f7       	brpl	.-6      	; 0x384 <DIO_setPinDir+0x34>
     38a:	82 2b       	or	r24, r18
     38c:	2e c0       	rjmp	.+92     	; 0x3ea <DIO_setPinDir+0x9a>
     38e:	24 b3       	in	r18, 0x14	; 20
     390:	81 e0       	ldi	r24, 0x01	; 1
     392:	90 e0       	ldi	r25, 0x00	; 0
     394:	01 c0       	rjmp	.+2      	; 0x398 <DIO_setPinDir+0x48>
     396:	88 0f       	add	r24, r24
     398:	6a 95       	dec	r22
     39a:	ea f7       	brpl	.-6      	; 0x396 <DIO_setPinDir+0x46>
     39c:	82 2b       	or	r24, r18
     39e:	30 c0       	rjmp	.+96     	; 0x400 <__EEPROM_REGION_LENGTH__>
     3a0:	21 b3       	in	r18, 0x11	; 17
     3a2:	81 e0       	ldi	r24, 0x01	; 1
     3a4:	90 e0       	ldi	r25, 0x00	; 0
     3a6:	01 c0       	rjmp	.+2      	; 0x3aa <DIO_setPinDir+0x5a>
     3a8:	88 0f       	add	r24, r24
     3aa:	6a 95       	dec	r22
     3ac:	ea f7       	brpl	.-6      	; 0x3a8 <DIO_setPinDir+0x58>
     3ae:	82 2b       	or	r24, r18
     3b0:	32 c0       	rjmp	.+100    	; 0x416 <__EEPROM_REGION_LENGTH__+0x16>
     3b2:	81 30       	cpi	r24, 0x01	; 1
     3b4:	89 f0       	breq	.+34     	; 0x3d8 <DIO_setPinDir+0x88>
     3b6:	28 f0       	brcs	.+10     	; 0x3c2 <DIO_setPinDir+0x72>
     3b8:	82 30       	cpi	r24, 0x02	; 2
     3ba:	c9 f0       	breq	.+50     	; 0x3ee <DIO_setPinDir+0x9e>
     3bc:	83 30       	cpi	r24, 0x03	; 3
     3be:	11 f1       	breq	.+68     	; 0x404 <__EEPROM_REGION_LENGTH__+0x4>
     3c0:	08 95       	ret
     3c2:	2a b3       	in	r18, 0x1a	; 26
     3c4:	81 e0       	ldi	r24, 0x01	; 1
     3c6:	90 e0       	ldi	r25, 0x00	; 0
     3c8:	01 c0       	rjmp	.+2      	; 0x3cc <DIO_setPinDir+0x7c>
     3ca:	88 0f       	add	r24, r24
     3cc:	6a 95       	dec	r22
     3ce:	ea f7       	brpl	.-6      	; 0x3ca <DIO_setPinDir+0x7a>
     3d0:	80 95       	com	r24
     3d2:	82 23       	and	r24, r18
     3d4:	8a bb       	out	0x1a, r24	; 26
     3d6:	08 95       	ret
     3d8:	27 b3       	in	r18, 0x17	; 23
     3da:	81 e0       	ldi	r24, 0x01	; 1
     3dc:	90 e0       	ldi	r25, 0x00	; 0
     3de:	01 c0       	rjmp	.+2      	; 0x3e2 <DIO_setPinDir+0x92>
     3e0:	88 0f       	add	r24, r24
     3e2:	6a 95       	dec	r22
     3e4:	ea f7       	brpl	.-6      	; 0x3e0 <DIO_setPinDir+0x90>
     3e6:	80 95       	com	r24
     3e8:	82 23       	and	r24, r18
     3ea:	87 bb       	out	0x17, r24	; 23
     3ec:	08 95       	ret
     3ee:	24 b3       	in	r18, 0x14	; 20
     3f0:	81 e0       	ldi	r24, 0x01	; 1
     3f2:	90 e0       	ldi	r25, 0x00	; 0
     3f4:	01 c0       	rjmp	.+2      	; 0x3f8 <DIO_setPinDir+0xa8>
     3f6:	88 0f       	add	r24, r24
     3f8:	6a 95       	dec	r22
     3fa:	ea f7       	brpl	.-6      	; 0x3f6 <DIO_setPinDir+0xa6>
     3fc:	80 95       	com	r24
     3fe:	82 23       	and	r24, r18
     400:	84 bb       	out	0x14, r24	; 20
     402:	08 95       	ret
     404:	21 b3       	in	r18, 0x11	; 17
     406:	81 e0       	ldi	r24, 0x01	; 1
     408:	90 e0       	ldi	r25, 0x00	; 0
     40a:	01 c0       	rjmp	.+2      	; 0x40e <__EEPROM_REGION_LENGTH__+0xe>
     40c:	88 0f       	add	r24, r24
     40e:	6a 95       	dec	r22
     410:	ea f7       	brpl	.-6      	; 0x40c <__EEPROM_REGION_LENGTH__+0xc>
     412:	80 95       	com	r24
     414:	82 23       	and	r24, r18
     416:	81 bb       	out	0x11, r24	; 17
     418:	08 95       	ret

0000041a <DIO_setPullUp>:
     41a:	81 30       	cpi	r24, 0x01	; 1
     41c:	81 f0       	breq	.+32     	; 0x43e <DIO_setPullUp+0x24>
     41e:	28 f0       	brcs	.+10     	; 0x42a <DIO_setPullUp+0x10>
     420:	82 30       	cpi	r24, 0x02	; 2
     422:	b9 f0       	breq	.+46     	; 0x452 <DIO_setPullUp+0x38>
     424:	83 30       	cpi	r24, 0x03	; 3
     426:	f9 f0       	breq	.+62     	; 0x466 <DIO_setPullUp+0x4c>
     428:	08 95       	ret
     42a:	2b b3       	in	r18, 0x1b	; 27
     42c:	81 e0       	ldi	r24, 0x01	; 1
     42e:	90 e0       	ldi	r25, 0x00	; 0
     430:	01 c0       	rjmp	.+2      	; 0x434 <DIO_setPullUp+0x1a>
     432:	88 0f       	add	r24, r24
     434:	6a 95       	dec	r22
     436:	ea f7       	brpl	.-6      	; 0x432 <DIO_setPullUp+0x18>
     438:	82 2b       	or	r24, r18
     43a:	8b bb       	out	0x1b, r24	; 27
     43c:	08 95       	ret
     43e:	28 b3       	in	r18, 0x18	; 24
     440:	81 e0       	ldi	r24, 0x01	; 1
     442:	90 e0       	ldi	r25, 0x00	; 0
     444:	01 c0       	rjmp	.+2      	; 0x448 <DIO_setPullUp+0x2e>
     446:	88 0f       	add	r24, r24
     448:	6a 95       	dec	r22
     44a:	ea f7       	brpl	.-6      	; 0x446 <DIO_setPullUp+0x2c>
     44c:	82 2b       	or	r24, r18
     44e:	88 bb       	out	0x18, r24	; 24
     450:	08 95       	ret
     452:	25 b3       	in	r18, 0x15	; 21
     454:	81 e0       	ldi	r24, 0x01	; 1
     456:	90 e0       	ldi	r25, 0x00	; 0
     458:	01 c0       	rjmp	.+2      	; 0x45c <DIO_setPullUp+0x42>
     45a:	88 0f       	add	r24, r24
     45c:	6a 95       	dec	r22
     45e:	ea f7       	brpl	.-6      	; 0x45a <DIO_setPullUp+0x40>
     460:	82 2b       	or	r24, r18
     462:	85 bb       	out	0x15, r24	; 21
     464:	08 95       	ret
     466:	22 b3       	in	r18, 0x12	; 18
     468:	81 e0       	ldi	r24, 0x01	; 1
     46a:	90 e0       	ldi	r25, 0x00	; 0
     46c:	01 c0       	rjmp	.+2      	; 0x470 <DIO_setPullUp+0x56>
     46e:	88 0f       	add	r24, r24
     470:	6a 95       	dec	r22
     472:	ea f7       	brpl	.-6      	; 0x46e <DIO_setPullUp+0x54>
     474:	82 2b       	or	r24, r18
     476:	82 bb       	out	0x12, r24	; 18
     478:	08 95       	ret

0000047a <DIO_setPinValue>:
     47a:	44 23       	and	r20, r20
     47c:	79 f1       	breq	.+94     	; 0x4dc <DIO_setPinValue+0x62>
     47e:	41 30       	cpi	r20, 0x01	; 1
     480:	09 f0       	breq	.+2      	; 0x484 <DIO_setPinValue+0xa>
     482:	5f c0       	rjmp	.+190    	; 0x542 <DIO_setPinValue+0xc8>
     484:	81 30       	cpi	r24, 0x01	; 1
     486:	79 f0       	breq	.+30     	; 0x4a6 <DIO_setPinValue+0x2c>
     488:	28 f0       	brcs	.+10     	; 0x494 <DIO_setPinValue+0x1a>
     48a:	82 30       	cpi	r24, 0x02	; 2
     48c:	a9 f0       	breq	.+42     	; 0x4b8 <DIO_setPinValue+0x3e>
     48e:	83 30       	cpi	r24, 0x03	; 3
     490:	e1 f0       	breq	.+56     	; 0x4ca <DIO_setPinValue+0x50>
     492:	08 95       	ret
     494:	2b b3       	in	r18, 0x1b	; 27
     496:	81 e0       	ldi	r24, 0x01	; 1
     498:	90 e0       	ldi	r25, 0x00	; 0
     49a:	01 c0       	rjmp	.+2      	; 0x49e <DIO_setPinValue+0x24>
     49c:	88 0f       	add	r24, r24
     49e:	6a 95       	dec	r22
     4a0:	ea f7       	brpl	.-6      	; 0x49c <DIO_setPinValue+0x22>
     4a2:	82 2b       	or	r24, r18
     4a4:	2c c0       	rjmp	.+88     	; 0x4fe <DIO_setPinValue+0x84>
     4a6:	28 b3       	in	r18, 0x18	; 24
     4a8:	81 e0       	ldi	r24, 0x01	; 1
     4aa:	90 e0       	ldi	r25, 0x00	; 0
     4ac:	01 c0       	rjmp	.+2      	; 0x4b0 <DIO_setPinValue+0x36>
     4ae:	88 0f       	add	r24, r24
     4b0:	6a 95       	dec	r22
     4b2:	ea f7       	brpl	.-6      	; 0x4ae <DIO_setPinValue+0x34>
     4b4:	82 2b       	or	r24, r18
     4b6:	2e c0       	rjmp	.+92     	; 0x514 <DIO_setPinValue+0x9a>
     4b8:	25 b3       	in	r18, 0x15	; 21
     4ba:	81 e0       	ldi	r24, 0x01	; 1
     4bc:	90 e0       	ldi	r25, 0x00	; 0
     4be:	01 c0       	rjmp	.+2      	; 0x4c2 <DIO_setPinValue+0x48>
     4c0:	88 0f       	add	r24, r24
     4c2:	6a 95       	dec	r22
     4c4:	ea f7       	brpl	.-6      	; 0x4c0 <DIO_setPinValue+0x46>
     4c6:	82 2b       	or	r24, r18
     4c8:	30 c0       	rjmp	.+96     	; 0x52a <DIO_setPinValue+0xb0>
     4ca:	22 b3       	in	r18, 0x12	; 18
     4cc:	81 e0       	ldi	r24, 0x01	; 1
     4ce:	90 e0       	ldi	r25, 0x00	; 0
     4d0:	01 c0       	rjmp	.+2      	; 0x4d4 <DIO_setPinValue+0x5a>
     4d2:	88 0f       	add	r24, r24
     4d4:	6a 95       	dec	r22
     4d6:	ea f7       	brpl	.-6      	; 0x4d2 <DIO_setPinValue+0x58>
     4d8:	82 2b       	or	r24, r18
     4da:	32 c0       	rjmp	.+100    	; 0x540 <DIO_setPinValue+0xc6>
     4dc:	81 30       	cpi	r24, 0x01	; 1
     4de:	89 f0       	breq	.+34     	; 0x502 <DIO_setPinValue+0x88>
     4e0:	28 f0       	brcs	.+10     	; 0x4ec <DIO_setPinValue+0x72>
     4e2:	82 30       	cpi	r24, 0x02	; 2
     4e4:	c9 f0       	breq	.+50     	; 0x518 <DIO_setPinValue+0x9e>
     4e6:	83 30       	cpi	r24, 0x03	; 3
     4e8:	11 f1       	breq	.+68     	; 0x52e <DIO_setPinValue+0xb4>
     4ea:	08 95       	ret
     4ec:	2b b3       	in	r18, 0x1b	; 27
     4ee:	81 e0       	ldi	r24, 0x01	; 1
     4f0:	90 e0       	ldi	r25, 0x00	; 0
     4f2:	01 c0       	rjmp	.+2      	; 0x4f6 <DIO_setPinValue+0x7c>
     4f4:	88 0f       	add	r24, r24
     4f6:	6a 95       	dec	r22
     4f8:	ea f7       	brpl	.-6      	; 0x4f4 <DIO_setPinValue+0x7a>
     4fa:	80 95       	com	r24
     4fc:	82 23       	and	r24, r18
     4fe:	8b bb       	out	0x1b, r24	; 27
     500:	08 95       	ret
     502:	28 b3       	in	r18, 0x18	; 24
     504:	81 e0       	ldi	r24, 0x01	; 1
     506:	90 e0       	ldi	r25, 0x00	; 0
     508:	01 c0       	rjmp	.+2      	; 0x50c <DIO_setPinValue+0x92>
     50a:	88 0f       	add	r24, r24
     50c:	6a 95       	dec	r22
     50e:	ea f7       	brpl	.-6      	; 0x50a <DIO_setPinValue+0x90>
     510:	80 95       	com	r24
     512:	82 23       	and	r24, r18
     514:	88 bb       	out	0x18, r24	; 24
     516:	08 95       	ret
     518:	25 b3       	in	r18, 0x15	; 21
     51a:	81 e0       	ldi	r24, 0x01	; 1
     51c:	90 e0       	ldi	r25, 0x00	; 0
     51e:	01 c0       	rjmp	.+2      	; 0x522 <DIO_setPinValue+0xa8>
     520:	88 0f       	add	r24, r24
     522:	6a 95       	dec	r22
     524:	ea f7       	brpl	.-6      	; 0x520 <DIO_setPinValue+0xa6>
     526:	80 95       	com	r24
     528:	82 23       	and	r24, r18
     52a:	85 bb       	out	0x15, r24	; 21
     52c:	08 95       	ret
     52e:	22 b3       	in	r18, 0x12	; 18
     530:	81 e0       	ldi	r24, 0x01	; 1
     532:	90 e0       	ldi	r25, 0x00	; 0
     534:	01 c0       	rjmp	.+2      	; 0x538 <DIO_setPinValue+0xbe>
     536:	88 0f       	add	r24, r24
     538:	6a 95       	dec	r22
     53a:	ea f7       	brpl	.-6      	; 0x536 <DIO_setPinValue+0xbc>
     53c:	80 95       	com	r24
     53e:	82 23       	and	r24, r18
     540:	82 bb       	out	0x12, r24	; 18
     542:	08 95       	ret

00000544 <DIO_readPinValue>:
     544:	fa 01       	movw	r30, r20
     546:	81 30       	cpi	r24, 0x01	; 1
     548:	41 f0       	breq	.+16     	; 0x55a <DIO_readPinValue+0x16>
     54a:	28 f0       	brcs	.+10     	; 0x556 <DIO_readPinValue+0x12>
     54c:	82 30       	cpi	r24, 0x02	; 2
     54e:	39 f0       	breq	.+14     	; 0x55e <DIO_readPinValue+0x1a>
     550:	83 30       	cpi	r24, 0x03	; 3
     552:	39 f0       	breq	.+14     	; 0x562 <DIO_readPinValue+0x1e>
     554:	08 95       	ret
     556:	89 b3       	in	r24, 0x19	; 25
     558:	05 c0       	rjmp	.+10     	; 0x564 <DIO_readPinValue+0x20>
     55a:	86 b3       	in	r24, 0x16	; 22
     55c:	03 c0       	rjmp	.+6      	; 0x564 <DIO_readPinValue+0x20>
     55e:	83 b3       	in	r24, 0x13	; 19
     560:	01 c0       	rjmp	.+2      	; 0x564 <DIO_readPinValue+0x20>
     562:	80 b3       	in	r24, 0x10	; 16
     564:	90 e0       	ldi	r25, 0x00	; 0
     566:	02 c0       	rjmp	.+4      	; 0x56c <DIO_readPinValue+0x28>
     568:	95 95       	asr	r25
     56a:	87 95       	ror	r24
     56c:	6a 95       	dec	r22
     56e:	e2 f7       	brpl	.-8      	; 0x568 <DIO_readPinValue+0x24>
     570:	81 70       	andi	r24, 0x01	; 1
     572:	80 83       	st	Z, r24
     574:	08 95       	ret

00000576 <KEYPAD_INIT>:
     576:	41 e0       	ldi	r20, 0x01	; 1
     578:	67 e0       	ldi	r22, 0x07	; 7
     57a:	83 e0       	ldi	r24, 0x03	; 3
     57c:	0e 94 a8 01 	call	0x350	; 0x350 <DIO_setPinDir>
     580:	41 e0       	ldi	r20, 0x01	; 1
     582:	66 e0       	ldi	r22, 0x06	; 6
     584:	83 e0       	ldi	r24, 0x03	; 3
     586:	0e 94 a8 01 	call	0x350	; 0x350 <DIO_setPinDir>
     58a:	41 e0       	ldi	r20, 0x01	; 1
     58c:	65 e0       	ldi	r22, 0x05	; 5
     58e:	83 e0       	ldi	r24, 0x03	; 3
     590:	0e 94 a8 01 	call	0x350	; 0x350 <DIO_setPinDir>
     594:	41 e0       	ldi	r20, 0x01	; 1
     596:	63 e0       	ldi	r22, 0x03	; 3
     598:	83 e0       	ldi	r24, 0x03	; 3
     59a:	0e 94 a8 01 	call	0x350	; 0x350 <DIO_setPinDir>
     59e:	40 e0       	ldi	r20, 0x00	; 0
     5a0:	65 e0       	ldi	r22, 0x05	; 5
     5a2:	82 e0       	ldi	r24, 0x02	; 2
     5a4:	0e 94 a8 01 	call	0x350	; 0x350 <DIO_setPinDir>
     5a8:	40 e0       	ldi	r20, 0x00	; 0
     5aa:	64 e0       	ldi	r22, 0x04	; 4
     5ac:	82 e0       	ldi	r24, 0x02	; 2
     5ae:	0e 94 a8 01 	call	0x350	; 0x350 <DIO_setPinDir>
     5b2:	40 e0       	ldi	r20, 0x00	; 0
     5b4:	63 e0       	ldi	r22, 0x03	; 3
     5b6:	82 e0       	ldi	r24, 0x02	; 2
     5b8:	0e 94 a8 01 	call	0x350	; 0x350 <DIO_setPinDir>
     5bc:	40 e0       	ldi	r20, 0x00	; 0
     5be:	62 e0       	ldi	r22, 0x02	; 2
     5c0:	82 e0       	ldi	r24, 0x02	; 2
     5c2:	0e 94 a8 01 	call	0x350	; 0x350 <DIO_setPinDir>
     5c6:	65 e0       	ldi	r22, 0x05	; 5
     5c8:	82 e0       	ldi	r24, 0x02	; 2
     5ca:	0e 94 0d 02 	call	0x41a	; 0x41a <DIO_setPullUp>
     5ce:	64 e0       	ldi	r22, 0x04	; 4
     5d0:	82 e0       	ldi	r24, 0x02	; 2
     5d2:	0e 94 0d 02 	call	0x41a	; 0x41a <DIO_setPullUp>
     5d6:	63 e0       	ldi	r22, 0x03	; 3
     5d8:	82 e0       	ldi	r24, 0x02	; 2
     5da:	0e 94 0d 02 	call	0x41a	; 0x41a <DIO_setPullUp>
     5de:	62 e0       	ldi	r22, 0x02	; 2
     5e0:	82 e0       	ldi	r24, 0x02	; 2
     5e2:	0e 94 0d 02 	call	0x41a	; 0x41a <DIO_setPullUp>
     5e6:	41 e0       	ldi	r20, 0x01	; 1
     5e8:	67 e0       	ldi	r22, 0x07	; 7
     5ea:	83 e0       	ldi	r24, 0x03	; 3
     5ec:	0e 94 3d 02 	call	0x47a	; 0x47a <DIO_setPinValue>
     5f0:	41 e0       	ldi	r20, 0x01	; 1
     5f2:	66 e0       	ldi	r22, 0x06	; 6
     5f4:	83 e0       	ldi	r24, 0x03	; 3
     5f6:	0e 94 3d 02 	call	0x47a	; 0x47a <DIO_setPinValue>
     5fa:	41 e0       	ldi	r20, 0x01	; 1
     5fc:	65 e0       	ldi	r22, 0x05	; 5
     5fe:	83 e0       	ldi	r24, 0x03	; 3
     600:	0e 94 3d 02 	call	0x47a	; 0x47a <DIO_setPinValue>
     604:	41 e0       	ldi	r20, 0x01	; 1
     606:	63 e0       	ldi	r22, 0x03	; 3
     608:	83 e0       	ldi	r24, 0x03	; 3
     60a:	0c 94 3d 02 	jmp	0x47a	; 0x47a <DIO_setPinValue>

0000060e <keypadGetValue>:
     60e:	af 92       	push	r10
     610:	bf 92       	push	r11
     612:	cf 92       	push	r12
     614:	df 92       	push	r13
     616:	ef 92       	push	r14
     618:	ff 92       	push	r15
     61a:	0f 93       	push	r16
     61c:	1f 93       	push	r17
     61e:	cf 93       	push	r28
     620:	df 93       	push	r29
     622:	1f 92       	push	r1
     624:	cd b7       	in	r28, 0x3d	; 61
     626:	de b7       	in	r29, 0x3e	; 62
     628:	19 82       	std	Y+1, r1	; 0x01
     62a:	c1 2c       	mov	r12, r1
     62c:	d1 2c       	mov	r13, r1
     62e:	a1 2c       	mov	r10, r1
     630:	b1 2c       	mov	r11, r1
     632:	17 e0       	ldi	r17, 0x07	; 7
     634:	14 30       	cpi	r17, 0x04	; 4
     636:	e9 f1       	breq	.+122    	; 0x6b2 <keypadGetValue+0xa4>
     638:	13 30       	cpi	r17, 0x03	; 3
     63a:	11 f4       	brne	.+4      	; 0x640 <keypadGetValue+0x32>
     63c:	aa 24       	eor	r10, r10
     63e:	a3 94       	inc	r10
     640:	40 e0       	ldi	r20, 0x00	; 0
     642:	61 2f       	mov	r22, r17
     644:	83 e0       	ldi	r24, 0x03	; 3
     646:	0e 94 3d 02 	call	0x47a	; 0x47a <DIO_setPinValue>
     64a:	76 01       	movw	r14, r12
     64c:	27 e0       	ldi	r18, 0x07	; 7
     64e:	e2 1a       	sub	r14, r18
     650:	f1 08       	sbc	r15, r1
     652:	c7 01       	movw	r24, r14
     654:	8a 19       	sub	r24, r10
     656:	91 09       	sbc	r25, r1
     658:	fc 01       	movw	r30, r24
     65a:	e5 58       	subi	r30, 0x85	; 133
     65c:	ff 4f       	sbci	r31, 0xFF	; 255
     65e:	7f 01       	movw	r14, r30
     660:	05 e0       	ldi	r16, 0x05	; 5
     662:	ae 01       	movw	r20, r28
     664:	4f 5f       	subi	r20, 0xFF	; 255
     666:	5f 4f       	sbci	r21, 0xFF	; 255
     668:	60 2f       	mov	r22, r16
     66a:	82 e0       	ldi	r24, 0x02	; 2
     66c:	0e 94 a2 02 	call	0x544	; 0x544 <DIO_readPinValue>
     670:	89 81       	ldd	r24, Y+1	; 0x01
     672:	81 11       	cpse	r24, r1
     674:	13 c0       	rjmp	.+38     	; 0x69c <keypadGetValue+0x8e>
     676:	f7 01       	movw	r30, r14
     678:	b7 80       	ldd	r11, Z+7	; 0x07
     67a:	89 81       	ldd	r24, Y+1	; 0x01
     67c:	81 11       	cpse	r24, r1
     67e:	08 c0       	rjmp	.+16     	; 0x690 <keypadGetValue+0x82>
     680:	ae 01       	movw	r20, r28
     682:	4f 5f       	subi	r20, 0xFF	; 255
     684:	5f 4f       	sbci	r21, 0xFF	; 255
     686:	60 2f       	mov	r22, r16
     688:	82 e0       	ldi	r24, 0x02	; 2
     68a:	0e 94 a2 02 	call	0x544	; 0x544 <DIO_readPinValue>
     68e:	f5 cf       	rjmp	.-22     	; 0x67a <keypadGetValue+0x6c>
     690:	8f e3       	ldi	r24, 0x3F	; 63
     692:	9c e9       	ldi	r25, 0x9C	; 156
     694:	01 97       	sbiw	r24, 0x01	; 1
     696:	f1 f7       	brne	.-4      	; 0x694 <keypadGetValue+0x86>
     698:	00 c0       	rjmp	.+0      	; 0x69a <keypadGetValue+0x8c>
     69a:	00 00       	nop
     69c:	01 50       	subi	r16, 0x01	; 1
     69e:	94 e0       	ldi	r25, 0x04	; 4
     6a0:	e9 0e       	add	r14, r25
     6a2:	f1 1c       	adc	r15, r1
     6a4:	01 30       	cpi	r16, 0x01	; 1
     6a6:	e9 f6       	brne	.-70     	; 0x662 <keypadGetValue+0x54>
     6a8:	41 e0       	ldi	r20, 0x01	; 1
     6aa:	61 2f       	mov	r22, r17
     6ac:	83 e0       	ldi	r24, 0x03	; 3
     6ae:	0e 94 3d 02 	call	0x47a	; 0x47a <DIO_setPinValue>
     6b2:	11 50       	subi	r17, 0x01	; 1
     6b4:	ef ef       	ldi	r30, 0xFF	; 255
     6b6:	ce 1a       	sub	r12, r30
     6b8:	de 0a       	sbc	r13, r30
     6ba:	12 30       	cpi	r17, 0x02	; 2
     6bc:	09 f0       	breq	.+2      	; 0x6c0 <keypadGetValue+0xb2>
     6be:	ba cf       	rjmp	.-140    	; 0x634 <keypadGetValue+0x26>
     6c0:	8b 2d       	mov	r24, r11
     6c2:	0f 90       	pop	r0
     6c4:	df 91       	pop	r29
     6c6:	cf 91       	pop	r28
     6c8:	1f 91       	pop	r17
     6ca:	0f 91       	pop	r16
     6cc:	ff 90       	pop	r15
     6ce:	ef 90       	pop	r14
     6d0:	df 90       	pop	r13
     6d2:	cf 90       	pop	r12
     6d4:	bf 90       	pop	r11
     6d6:	af 90       	pop	r10
     6d8:	08 95       	ret

000006da <LCD_WRITE_CMD>:
     6da:	cf 93       	push	r28
     6dc:	c8 2f       	mov	r28, r24
     6de:	40 e0       	ldi	r20, 0x00	; 0
     6e0:	63 e0       	ldi	r22, 0x03	; 3
     6e2:	80 e0       	ldi	r24, 0x00	; 0
     6e4:	0e 94 3d 02 	call	0x47a	; 0x47a <DIO_setPinValue>
     6e8:	40 e0       	ldi	r20, 0x00	; 0
     6ea:	62 e0       	ldi	r22, 0x02	; 2
     6ec:	80 e0       	ldi	r24, 0x00	; 0
     6ee:	0e 94 3d 02 	call	0x47a	; 0x47a <DIO_setPinValue>
     6f2:	8c 2f       	mov	r24, r28
     6f4:	82 95       	swap	r24
     6f6:	8f 70       	andi	r24, 0x0F	; 15
     6f8:	98 2f       	mov	r25, r24
     6fa:	97 70       	andi	r25, 0x07	; 7
     6fc:	8c 2f       	mov	r24, r28
     6fe:	86 95       	lsr	r24
     700:	86 95       	lsr	r24
     702:	86 95       	lsr	r24
     704:	80 71       	andi	r24, 0x10	; 16
     706:	89 2b       	or	r24, r25
     708:	88 bb       	out	0x18, r24	; 24
     70a:	41 e0       	ldi	r20, 0x01	; 1
     70c:	62 e0       	ldi	r22, 0x02	; 2
     70e:	80 e0       	ldi	r24, 0x00	; 0
     710:	0e 94 3d 02 	call	0x47a	; 0x47a <DIO_setPinValue>
     714:	85 e0       	ldi	r24, 0x05	; 5
     716:	8a 95       	dec	r24
     718:	f1 f7       	brne	.-4      	; 0x716 <LCD_WRITE_CMD+0x3c>
     71a:	00 00       	nop
     71c:	40 e0       	ldi	r20, 0x00	; 0
     71e:	62 e0       	ldi	r22, 0x02	; 2
     720:	80 e0       	ldi	r24, 0x00	; 0
     722:	0e 94 3d 02 	call	0x47a	; 0x47a <DIO_setPinValue>
     726:	95 e0       	ldi	r25, 0x05	; 5
     728:	9a 95       	dec	r25
     72a:	f1 f7       	brne	.-4      	; 0x728 <LCD_WRITE_CMD+0x4e>
     72c:	00 00       	nop
     72e:	8c 2f       	mov	r24, r28
     730:	88 0f       	add	r24, r24
     732:	80 71       	andi	r24, 0x10	; 16
     734:	c7 70       	andi	r28, 0x07	; 7
     736:	c8 2b       	or	r28, r24
     738:	c8 bb       	out	0x18, r28	; 24
     73a:	41 e0       	ldi	r20, 0x01	; 1
     73c:	62 e0       	ldi	r22, 0x02	; 2
     73e:	80 e0       	ldi	r24, 0x00	; 0
     740:	0e 94 3d 02 	call	0x47a	; 0x47a <DIO_setPinValue>
     744:	85 e0       	ldi	r24, 0x05	; 5
     746:	8a 95       	dec	r24
     748:	f1 f7       	brne	.-4      	; 0x746 <LCD_WRITE_CMD+0x6c>
     74a:	00 00       	nop
     74c:	40 e0       	ldi	r20, 0x00	; 0
     74e:	62 e0       	ldi	r22, 0x02	; 2
     750:	80 e0       	ldi	r24, 0x00	; 0
     752:	0e 94 3d 02 	call	0x47a	; 0x47a <DIO_setPinValue>
     756:	95 e0       	ldi	r25, 0x05	; 5
     758:	9a 95       	dec	r25
     75a:	f1 f7       	brne	.-4      	; 0x758 <LCD_WRITE_CMD+0x7e>
     75c:	00 00       	nop
     75e:	87 ec       	ldi	r24, 0xC7	; 199
     760:	90 e0       	ldi	r25, 0x00	; 0
     762:	01 97       	sbiw	r24, 0x01	; 1
     764:	f1 f7       	brne	.-4      	; 0x762 <LCD_WRITE_CMD+0x88>
     766:	00 c0       	rjmp	.+0      	; 0x768 <LCD_WRITE_CMD+0x8e>
     768:	00 00       	nop
     76a:	cf 91       	pop	r28
     76c:	08 95       	ret

0000076e <LCD_WRITE_CHAR>:
     76e:	cf 93       	push	r28
     770:	c8 2f       	mov	r28, r24
     772:	41 e0       	ldi	r20, 0x01	; 1
     774:	63 e0       	ldi	r22, 0x03	; 3
     776:	80 e0       	ldi	r24, 0x00	; 0
     778:	0e 94 3d 02 	call	0x47a	; 0x47a <DIO_setPinValue>
     77c:	40 e0       	ldi	r20, 0x00	; 0
     77e:	62 e0       	ldi	r22, 0x02	; 2
     780:	80 e0       	ldi	r24, 0x00	; 0
     782:	0e 94 3d 02 	call	0x47a	; 0x47a <DIO_setPinValue>
     786:	8c 2f       	mov	r24, r28
     788:	82 95       	swap	r24
     78a:	8f 70       	andi	r24, 0x0F	; 15
     78c:	98 2f       	mov	r25, r24
     78e:	97 70       	andi	r25, 0x07	; 7
     790:	8c 2f       	mov	r24, r28
     792:	86 95       	lsr	r24
     794:	86 95       	lsr	r24
     796:	86 95       	lsr	r24
     798:	80 71       	andi	r24, 0x10	; 16
     79a:	89 2b       	or	r24, r25
     79c:	88 bb       	out	0x18, r24	; 24
     79e:	41 e0       	ldi	r20, 0x01	; 1
     7a0:	62 e0       	ldi	r22, 0x02	; 2
     7a2:	80 e0       	ldi	r24, 0x00	; 0
     7a4:	0e 94 3d 02 	call	0x47a	; 0x47a <DIO_setPinValue>
     7a8:	85 e0       	ldi	r24, 0x05	; 5
     7aa:	8a 95       	dec	r24
     7ac:	f1 f7       	brne	.-4      	; 0x7aa <LCD_WRITE_CHAR+0x3c>
     7ae:	00 00       	nop
     7b0:	40 e0       	ldi	r20, 0x00	; 0
     7b2:	62 e0       	ldi	r22, 0x02	; 2
     7b4:	80 e0       	ldi	r24, 0x00	; 0
     7b6:	0e 94 3d 02 	call	0x47a	; 0x47a <DIO_setPinValue>
     7ba:	95 e0       	ldi	r25, 0x05	; 5
     7bc:	9a 95       	dec	r25
     7be:	f1 f7       	brne	.-4      	; 0x7bc <LCD_WRITE_CHAR+0x4e>
     7c0:	00 00       	nop
     7c2:	8c 2f       	mov	r24, r28
     7c4:	88 0f       	add	r24, r24
     7c6:	80 71       	andi	r24, 0x10	; 16
     7c8:	c7 70       	andi	r28, 0x07	; 7
     7ca:	c8 2b       	or	r28, r24
     7cc:	c8 bb       	out	0x18, r28	; 24
     7ce:	41 e0       	ldi	r20, 0x01	; 1
     7d0:	62 e0       	ldi	r22, 0x02	; 2
     7d2:	80 e0       	ldi	r24, 0x00	; 0
     7d4:	0e 94 3d 02 	call	0x47a	; 0x47a <DIO_setPinValue>
     7d8:	85 e0       	ldi	r24, 0x05	; 5
     7da:	8a 95       	dec	r24
     7dc:	f1 f7       	brne	.-4      	; 0x7da <LCD_WRITE_CHAR+0x6c>
     7de:	00 00       	nop
     7e0:	40 e0       	ldi	r20, 0x00	; 0
     7e2:	62 e0       	ldi	r22, 0x02	; 2
     7e4:	80 e0       	ldi	r24, 0x00	; 0
     7e6:	0e 94 3d 02 	call	0x47a	; 0x47a <DIO_setPinValue>
     7ea:	95 e0       	ldi	r25, 0x05	; 5
     7ec:	9a 95       	dec	r25
     7ee:	f1 f7       	brne	.-4      	; 0x7ec <LCD_WRITE_CHAR+0x7e>
     7f0:	00 00       	nop
     7f2:	87 ec       	ldi	r24, 0xC7	; 199
     7f4:	90 e0       	ldi	r25, 0x00	; 0
     7f6:	01 97       	sbiw	r24, 0x01	; 1
     7f8:	f1 f7       	brne	.-4      	; 0x7f6 <LCD_WRITE_CHAR+0x88>
     7fa:	00 c0       	rjmp	.+0      	; 0x7fc <LCD_WRITE_CHAR+0x8e>
     7fc:	00 00       	nop
     7fe:	cf 91       	pop	r28
     800:	08 95       	ret

00000802 <LOCATE_CURSOR>:
     802:	0f 93       	push	r16
     804:	1f 93       	push	r17
     806:	cf 93       	push	r28
     808:	df 93       	push	r29
     80a:	00 d0       	rcall	.+0      	; 0x80c <LOCATE_CURSOR+0xa>
     80c:	00 d0       	rcall	.+0      	; 0x80e <LOCATE_CURSOR+0xc>
     80e:	cd b7       	in	r28, 0x3d	; 61
     810:	de b7       	in	r29, 0x3e	; 62
     812:	00 91 6b 00 	lds	r16, 0x006B	; 0x80006b <top+0x4>
     816:	10 91 6c 00 	lds	r17, 0x006C	; 0x80006c <top+0x5>
     81a:	20 91 6d 00 	lds	r18, 0x006D	; 0x80006d <top+0x6>
     81e:	30 91 6e 00 	lds	r19, 0x006E	; 0x80006e <top+0x7>
     822:	09 83       	std	Y+1, r16	; 0x01
     824:	1a 83       	std	Y+2, r17	; 0x02
     826:	2b 83       	std	Y+3, r18	; 0x03
     828:	3c 83       	std	Y+4, r19	; 0x04
     82a:	fe 01       	movw	r30, r28
     82c:	e8 0f       	add	r30, r24
     82e:	f1 1d       	adc	r31, r1
     830:	81 81       	ldd	r24, Z+1	; 0x01
     832:	86 0f       	add	r24, r22
     834:	0f 90       	pop	r0
     836:	0f 90       	pop	r0
     838:	0f 90       	pop	r0
     83a:	0f 90       	pop	r0
     83c:	df 91       	pop	r29
     83e:	cf 91       	pop	r28
     840:	1f 91       	pop	r17
     842:	0f 91       	pop	r16
     844:	0c 94 6d 03 	jmp	0x6da	; 0x6da <LCD_WRITE_CMD>

00000848 <LCD_WRITE_STRING>:
     848:	cf 93       	push	r28
     84a:	df 93       	push	r29
     84c:	ec 01       	movw	r28, r24
     84e:	89 91       	ld	r24, Y+
     850:	88 23       	and	r24, r24
     852:	19 f0       	breq	.+6      	; 0x85a <LCD_WRITE_STRING+0x12>
     854:	0e 94 b7 03 	call	0x76e	; 0x76e <LCD_WRITE_CHAR>
     858:	fa cf       	rjmp	.-12     	; 0x84e <LCD_WRITE_STRING+0x6>
     85a:	df 91       	pop	r29
     85c:	cf 91       	pop	r28
     85e:	08 95       	ret

00000860 <LCD_CLR>:
     860:	81 e0       	ldi	r24, 0x01	; 1
     862:	0e 94 6d 03 	call	0x6da	; 0x6da <LCD_WRITE_CMD>
     866:	8f e3       	ldi	r24, 0x3F	; 63
     868:	9c e9       	ldi	r25, 0x9C	; 156
     86a:	01 97       	sbiw	r24, 0x01	; 1
     86c:	f1 f7       	brne	.-4      	; 0x86a <LCD_CLR+0xa>
     86e:	00 c0       	rjmp	.+0      	; 0x870 <LCD_CLR+0x10>
     870:	00 00       	nop
     872:	08 95       	ret

00000874 <LCD_Display>:
     874:	81 11       	cpse	r24, r1
     876:	04 c0       	rjmp	.+8      	; 0x880 <LCD_Display+0xc>
     878:	80 91 66 00 	lds	r24, 0x0066	; 0x800066 <B_LCDDispControl>
     87c:	8b 7f       	andi	r24, 0xFB	; 251
     87e:	05 c0       	rjmp	.+10     	; 0x88a <LCD_Display+0x16>
     880:	81 30       	cpi	r24, 0x01	; 1
     882:	29 f4       	brne	.+10     	; 0x88e <LCD_Display+0x1a>
     884:	80 91 66 00 	lds	r24, 0x0066	; 0x800066 <B_LCDDispControl>
     888:	84 60       	ori	r24, 0x04	; 4
     88a:	80 93 66 00 	sts	0x0066, r24	; 0x800066 <B_LCDDispControl>
     88e:	80 91 66 00 	lds	r24, 0x0066	; 0x800066 <B_LCDDispControl>
     892:	0c 94 6d 03 	jmp	0x6da	; 0x6da <LCD_WRITE_CMD>

00000896 <LCD_Cursor>:
     896:	81 11       	cpse	r24, r1
     898:	04 c0       	rjmp	.+8      	; 0x8a2 <LCD_Cursor+0xc>
     89a:	80 91 66 00 	lds	r24, 0x0066	; 0x800066 <B_LCDDispControl>
     89e:	8d 7f       	andi	r24, 0xFD	; 253
     8a0:	11 c0       	rjmp	.+34     	; 0x8c4 <LCD_Cursor+0x2e>
     8a2:	81 30       	cpi	r24, 0x01	; 1
     8a4:	21 f4       	brne	.+8      	; 0x8ae <LCD_Cursor+0x18>
     8a6:	80 91 66 00 	lds	r24, 0x0066	; 0x800066 <B_LCDDispControl>
     8aa:	82 60       	ori	r24, 0x02	; 2
     8ac:	0b c0       	rjmp	.+22     	; 0x8c4 <LCD_Cursor+0x2e>
     8ae:	82 30       	cpi	r24, 0x02	; 2
     8b0:	21 f4       	brne	.+8      	; 0x8ba <LCD_Cursor+0x24>
     8b2:	80 91 66 00 	lds	r24, 0x0066	; 0x800066 <B_LCDDispControl>
     8b6:	81 60       	ori	r24, 0x01	; 1
     8b8:	05 c0       	rjmp	.+10     	; 0x8c4 <LCD_Cursor+0x2e>
     8ba:	83 30       	cpi	r24, 0x03	; 3
     8bc:	29 f4       	brne	.+10     	; 0x8c8 <LCD_Cursor+0x32>
     8be:	80 91 66 00 	lds	r24, 0x0066	; 0x800066 <B_LCDDispControl>
     8c2:	8e 7f       	andi	r24, 0xFE	; 254
     8c4:	80 93 66 00 	sts	0x0066, r24	; 0x800066 <B_LCDDispControl>
     8c8:	80 91 66 00 	lds	r24, 0x0066	; 0x800066 <B_LCDDispControl>
     8cc:	0c 94 6d 03 	jmp	0x6da	; 0x6da <LCD_WRITE_CMD>

000008d0 <LCD_INIT>:
     8d0:	8b b3       	in	r24, 0x1b	; 27
     8d2:	8c 60       	ori	r24, 0x0C	; 12
     8d4:	8b bb       	out	0x1b, r24	; 27
     8d6:	8a b3       	in	r24, 0x1a	; 26
     8d8:	8c 60       	ori	r24, 0x0C	; 12
     8da:	8a bb       	out	0x1a, r24	; 26
     8dc:	88 b3       	in	r24, 0x18	; 24
     8de:	87 61       	ori	r24, 0x17	; 23
     8e0:	88 bb       	out	0x18, r24	; 24
     8e2:	87 b3       	in	r24, 0x17	; 23
     8e4:	87 61       	ori	r24, 0x17	; 23
     8e6:	87 bb       	out	0x17, r24	; 23
     8e8:	41 e0       	ldi	r20, 0x01	; 1
     8ea:	63 e0       	ldi	r22, 0x03	; 3
     8ec:	80 e0       	ldi	r24, 0x00	; 0
     8ee:	0e 94 a8 01 	call	0x350	; 0x350 <DIO_setPinDir>
     8f2:	41 e0       	ldi	r20, 0x01	; 1
     8f4:	62 e0       	ldi	r22, 0x02	; 2
     8f6:	80 e0       	ldi	r24, 0x00	; 0
     8f8:	0e 94 a8 01 	call	0x350	; 0x350 <DIO_setPinDir>
     8fc:	41 e0       	ldi	r20, 0x01	; 1
     8fe:	60 e0       	ldi	r22, 0x00	; 0
     900:	81 e0       	ldi	r24, 0x01	; 1
     902:	0e 94 a8 01 	call	0x350	; 0x350 <DIO_setPinDir>
     906:	41 e0       	ldi	r20, 0x01	; 1
     908:	61 e0       	ldi	r22, 0x01	; 1
     90a:	81 e0       	ldi	r24, 0x01	; 1
     90c:	0e 94 a8 01 	call	0x350	; 0x350 <DIO_setPinDir>
     910:	41 e0       	ldi	r20, 0x01	; 1
     912:	62 e0       	ldi	r22, 0x02	; 2
     914:	81 e0       	ldi	r24, 0x01	; 1
     916:	0e 94 a8 01 	call	0x350	; 0x350 <DIO_setPinDir>
     91a:	41 e0       	ldi	r20, 0x01	; 1
     91c:	64 e0       	ldi	r22, 0x04	; 4
     91e:	81 e0       	ldi	r24, 0x01	; 1
     920:	0e 94 a8 01 	call	0x350	; 0x350 <DIO_setPinDir>
     924:	82 e0       	ldi	r24, 0x02	; 2
     926:	0e 94 6d 03 	call	0x6da	; 0x6da <LCD_WRITE_CMD>
     92a:	88 e2       	ldi	r24, 0x28	; 40
     92c:	0e 94 6d 03 	call	0x6da	; 0x6da <LCD_WRITE_CMD>
     930:	80 e0       	ldi	r24, 0x00	; 0
     932:	0e 94 4b 04 	call	0x896	; 0x896 <LCD_Cursor>
     936:	83 e0       	ldi	r24, 0x03	; 3
     938:	0e 94 4b 04 	call	0x896	; 0x896 <LCD_Cursor>
     93c:	81 e0       	ldi	r24, 0x01	; 1
     93e:	0e 94 3a 04 	call	0x874	; 0x874 <LCD_Display>
     942:	86 e0       	ldi	r24, 0x06	; 6
     944:	0e 94 6d 03 	call	0x6da	; 0x6da <LCD_WRITE_CMD>
     948:	0c 94 30 04 	jmp	0x860	; 0x860 <LCD_CLR>

0000094c <LCD_WRITE_INTEGER>:
     94c:	4f 92       	push	r4
     94e:	5f 92       	push	r5
     950:	6f 92       	push	r6
     952:	7f 92       	push	r7
     954:	8f 92       	push	r8
     956:	9f 92       	push	r9
     958:	af 92       	push	r10
     95a:	bf 92       	push	r11
     95c:	cf 92       	push	r12
     95e:	df 92       	push	r13
     960:	ef 92       	push	r14
     962:	ff 92       	push	r15
     964:	4b 01       	movw	r8, r22
     966:	5c 01       	movw	r10, r24
     968:	97 ff       	sbrs	r25, 7
     96a:	0b c0       	rjmp	.+22     	; 0x982 <LCD_WRITE_INTEGER+0x36>
     96c:	8d e2       	ldi	r24, 0x2D	; 45
     96e:	0e 94 b7 03 	call	0x76e	; 0x76e <LCD_WRITE_CHAR>
     972:	b0 94       	com	r11
     974:	a0 94       	com	r10
     976:	90 94       	com	r9
     978:	80 94       	com	r8
     97a:	81 1c       	adc	r8, r1
     97c:	91 1c       	adc	r9, r1
     97e:	a1 1c       	adc	r10, r1
     980:	b1 1c       	adc	r11, r1
     982:	61 e0       	ldi	r22, 0x01	; 1
     984:	70 e0       	ldi	r23, 0x00	; 0
     986:	80 e0       	ldi	r24, 0x00	; 0
     988:	90 e0       	ldi	r25, 0x00	; 0
     98a:	3a e0       	ldi	r19, 0x0A	; 10
     98c:	43 2e       	mov	r4, r19
     98e:	51 2c       	mov	r5, r1
     990:	61 2c       	mov	r6, r1
     992:	71 2c       	mov	r7, r1
     994:	81 14       	cp	r8, r1
     996:	91 04       	cpc	r9, r1
     998:	a1 04       	cpc	r10, r1
     99a:	b1 04       	cpc	r11, r1
     99c:	a9 f0       	breq	.+42     	; 0x9c8 <LCD_WRITE_INTEGER+0x7c>
     99e:	aa e0       	ldi	r26, 0x0A	; 10
     9a0:	b0 e0       	ldi	r27, 0x00	; 0
     9a2:	9b 01       	movw	r18, r22
     9a4:	ac 01       	movw	r20, r24
     9a6:	0e 94 cc 06 	call	0xd98	; 0xd98 <__muluhisi3>
     9aa:	6b 01       	movw	r12, r22
     9ac:	7c 01       	movw	r14, r24
     9ae:	c5 01       	movw	r24, r10
     9b0:	b4 01       	movw	r22, r8
     9b2:	a3 01       	movw	r20, r6
     9b4:	92 01       	movw	r18, r4
     9b6:	0e 94 ad 06 	call	0xd5a	; 0xd5a <__divmodsi4>
     9ba:	6c 0d       	add	r22, r12
     9bc:	7d 1d       	adc	r23, r13
     9be:	8e 1d       	adc	r24, r14
     9c0:	9f 1d       	adc	r25, r15
     9c2:	49 01       	movw	r8, r18
     9c4:	5a 01       	movw	r10, r20
     9c6:	e6 cf       	rjmp	.-52     	; 0x994 <LCD_WRITE_INTEGER+0x48>
     9c8:	2a e0       	ldi	r18, 0x0A	; 10
     9ca:	c2 2e       	mov	r12, r18
     9cc:	d1 2c       	mov	r13, r1
     9ce:	e1 2c       	mov	r14, r1
     9d0:	f1 2c       	mov	r15, r1
     9d2:	62 30       	cpi	r22, 0x02	; 2
     9d4:	71 05       	cpc	r23, r1
     9d6:	81 05       	cpc	r24, r1
     9d8:	91 05       	cpc	r25, r1
     9da:	6c f0       	brlt	.+26     	; 0x9f6 <LCD_WRITE_INTEGER+0xaa>
     9dc:	a7 01       	movw	r20, r14
     9de:	96 01       	movw	r18, r12
     9e0:	0e 94 ad 06 	call	0xd5a	; 0xd5a <__divmodsi4>
     9e4:	49 01       	movw	r8, r18
     9e6:	5a 01       	movw	r10, r20
     9e8:	80 e3       	ldi	r24, 0x30	; 48
     9ea:	86 0f       	add	r24, r22
     9ec:	0e 94 b7 03 	call	0x76e	; 0x76e <LCD_WRITE_CHAR>
     9f0:	b4 01       	movw	r22, r8
     9f2:	c5 01       	movw	r24, r10
     9f4:	ee cf       	rjmp	.-36     	; 0x9d2 <LCD_WRITE_INTEGER+0x86>
     9f6:	ff 90       	pop	r15
     9f8:	ef 90       	pop	r14
     9fa:	df 90       	pop	r13
     9fc:	cf 90       	pop	r12
     9fe:	bf 90       	pop	r11
     a00:	af 90       	pop	r10
     a02:	9f 90       	pop	r9
     a04:	8f 90       	pop	r8
     a06:	7f 90       	pop	r7
     a08:	6f 90       	pop	r6
     a0a:	5f 90       	pop	r5
     a0c:	4f 90       	pop	r4
     a0e:	08 95       	ret

00000a10 <performOperation>:
     a10:	cf 93       	push	r28
     a12:	df 93       	push	r29
     a14:	00 d0       	rcall	.+0      	; 0xa16 <performOperation+0x6>
     a16:	cd b7       	in	r28, 0x3d	; 61
     a18:	de b7       	in	r29, 0x3e	; 62
     a1a:	9c 01       	movw	r18, r24
     a1c:	4b 32       	cpi	r20, 0x2B	; 43
     a1e:	c1 f0       	breq	.+48     	; 0xa50 <performOperation+0x40>
     a20:	60 f4       	brcc	.+24     	; 0xa3a <performOperation+0x2a>
     a22:	4a 32       	cpi	r20, 0x2A	; 42
     a24:	f1 f4       	brne	.+60     	; 0xa62 <performOperation+0x52>
     a26:	62 9f       	mul	r22, r18
     a28:	c0 01       	movw	r24, r0
     a2a:	63 9f       	mul	r22, r19
     a2c:	90 0d       	add	r25, r0
     a2e:	72 9f       	mul	r23, r18
     a30:	90 0d       	add	r25, r0
     a32:	11 24       	eor	r1, r1
     a34:	9a 83       	std	Y+2, r25	; 0x02
     a36:	89 83       	std	Y+1, r24	; 0x01
     a38:	14 c0       	rjmp	.+40     	; 0xa62 <performOperation+0x52>
     a3a:	4d 32       	cpi	r20, 0x2D	; 45
     a3c:	61 f0       	breq	.+24     	; 0xa56 <performOperation+0x46>
     a3e:	4f 32       	cpi	r20, 0x2F	; 47
     a40:	81 f4       	brne	.+32     	; 0xa62 <performOperation+0x52>
     a42:	cb 01       	movw	r24, r22
     a44:	b9 01       	movw	r22, r18
     a46:	0e 94 99 06 	call	0xd32	; 0xd32 <__divmodhi4>
     a4a:	7a 83       	std	Y+2, r23	; 0x02
     a4c:	69 83       	std	Y+1, r22	; 0x01
     a4e:	09 c0       	rjmp	.+18     	; 0xa62 <performOperation+0x52>
     a50:	26 0f       	add	r18, r22
     a52:	37 1f       	adc	r19, r23
     a54:	04 c0       	rjmp	.+8      	; 0xa5e <performOperation+0x4e>
     a56:	cb 01       	movw	r24, r22
     a58:	82 1b       	sub	r24, r18
     a5a:	93 0b       	sbc	r25, r19
     a5c:	9c 01       	movw	r18, r24
     a5e:	3a 83       	std	Y+2, r19	; 0x02
     a60:	29 83       	std	Y+1, r18	; 0x01
     a62:	89 81       	ldd	r24, Y+1	; 0x01
     a64:	9a 81       	ldd	r25, Y+2	; 0x02
     a66:	0f 90       	pop	r0
     a68:	0f 90       	pop	r0
     a6a:	df 91       	pop	r29
     a6c:	cf 91       	pop	r28
     a6e:	08 95       	ret

00000a70 <evaluate>:
     a70:	8f 92       	push	r8
     a72:	9f 92       	push	r9
     a74:	af 92       	push	r10
     a76:	bf 92       	push	r11
     a78:	cf 92       	push	r12
     a7a:	df 92       	push	r13
     a7c:	ef 92       	push	r14
     a7e:	ff 92       	push	r15
     a80:	0f 93       	push	r16
     a82:	1f 93       	push	r17
     a84:	cf 93       	push	r28
     a86:	df 93       	push	r29
     a88:	cd b7       	in	r28, 0x3d	; 61
     a8a:	de b7       	in	r29, 0x3e	; 62
     a8c:	2f 97       	sbiw	r28, 0x0f	; 15
     a8e:	0f b6       	in	r0, 0x3f	; 63
     a90:	f8 94       	cli
     a92:	de bf       	out	0x3e, r29	; 62
     a94:	0f be       	out	0x3f, r0	; 63
     a96:	cd bf       	out	0x3d, r28	; 61
     a98:	0e 94 d6 00 	call	0x1ac	; 0x1ac <InfixToPostfix>
     a9c:	6c 01       	movw	r12, r24
     a9e:	fc 01       	movw	r30, r24
     aa0:	01 90       	ld	r0, Z+
     aa2:	00 20       	and	r0, r0
     aa4:	e9 f7       	brne	.-6      	; 0xaa0 <evaluate+0x30>
     aa6:	7c 01       	movw	r14, r24
     aa8:	cf 01       	movw	r24, r30
     aaa:	01 97       	sbiw	r24, 0x01	; 1
     aac:	5c 01       	movw	r10, r24
     aae:	00 e0       	ldi	r16, 0x00	; 0
     ab0:	10 e0       	ldi	r17, 0x00	; 0
     ab2:	ae 14       	cp	r10, r14
     ab4:	bf 04       	cpc	r11, r15
     ab6:	09 f4       	brne	.+2      	; 0xaba <evaluate+0x4a>
     ab8:	66 c0       	rjmp	.+204    	; 0xb86 <evaluate+0x116>
     aba:	f7 01       	movw	r30, r14
     abc:	80 81       	ld	r24, Z
     abe:	90 ed       	ldi	r25, 0xD0	; 208
     ac0:	98 0f       	add	r25, r24
     ac2:	9a 30       	cpi	r25, 0x0A	; 10
     ac4:	98 f4       	brcc	.+38     	; 0xaec <evaluate+0x7c>
     ac6:	48 01       	movw	r8, r16
     ac8:	ff ef       	ldi	r31, 0xFF	; 255
     aca:	8f 1a       	sub	r8, r31
     acc:	9f 0a       	sbc	r9, r31
     ace:	e1 e0       	ldi	r30, 0x01	; 1
     ad0:	f0 e0       	ldi	r31, 0x00	; 0
     ad2:	ec 0f       	add	r30, r28
     ad4:	fd 1f       	adc	r31, r29
     ad6:	e0 0f       	add	r30, r16
     ad8:	f1 1f       	adc	r31, r17
     ada:	80 83       	st	Z, r24
     adc:	f7 01       	movw	r30, r14
     ade:	80 81       	ld	r24, Z
     ae0:	90 e0       	ldi	r25, 0x00	; 0
     ae2:	c0 97       	sbiw	r24, 0x30	; 48
     ae4:	0e 94 3a 06 	call	0xc74	; 0xc74 <push>
     ae8:	84 01       	movw	r16, r8
     aea:	2f c0       	rjmp	.+94     	; 0xb4a <evaluate+0xda>
     aec:	80 32       	cpi	r24, 0x20	; 32
     aee:	79 f4       	brne	.+30     	; 0xb0e <evaluate+0x9e>
     af0:	01 15       	cp	r16, r1
     af2:	11 05       	cpc	r17, r1
     af4:	51 f1       	breq	.+84     	; 0xb4a <evaluate+0xda>
     af6:	e1 e0       	ldi	r30, 0x01	; 1
     af8:	f0 e0       	ldi	r31, 0x00	; 0
     afa:	ec 0f       	add	r30, r28
     afc:	fd 1f       	adc	r31, r29
     afe:	e0 0f       	add	r30, r16
     b00:	f1 1f       	adc	r31, r17
     b02:	10 82       	st	Z, r1
     b04:	ce 01       	movw	r24, r28
     b06:	01 96       	adiw	r24, 0x01	; 1
     b08:	0e 94 3d 08 	call	0x107a	; 0x107a <atoi>
     b0c:	1a c0       	rjmp	.+52     	; 0xb42 <evaluate+0xd2>
     b0e:	90 e0       	ldi	r25, 0x00	; 0
     b10:	0e 94 93 00 	call	0x126	; 0x126 <IsOperator>
     b14:	89 2b       	or	r24, r25
     b16:	c9 f0       	breq	.+50     	; 0xb4a <evaluate+0xda>
     b18:	0e 94 7e 06 	call	0xcfc	; 0xcfc <getTop>
     b1c:	8c 01       	movw	r16, r24
     b1e:	0e 94 64 06 	call	0xcc8	; 0xcc8 <pop>
     b22:	0e 94 7e 06 	call	0xcfc	; 0xcfc <getTop>
     b26:	4c 01       	movw	r8, r24
     b28:	0e 94 64 06 	call	0xcc8	; 0xcc8 <pop>
     b2c:	f7 01       	movw	r30, r14
     b2e:	40 81       	ld	r20, Z
     b30:	4f 32       	cpi	r20, 0x2F	; 47
     b32:	19 f4       	brne	.+6      	; 0xb3a <evaluate+0xca>
     b34:	01 15       	cp	r16, r1
     b36:	11 05       	cpc	r17, r1
     b38:	61 f0       	breq	.+24     	; 0xb52 <evaluate+0xe2>
     b3a:	b4 01       	movw	r22, r8
     b3c:	c8 01       	movw	r24, r16
     b3e:	0e 94 08 05 	call	0xa10	; 0xa10 <performOperation>
     b42:	0e 94 3a 06 	call	0xc74	; 0xc74 <push>
     b46:	00 e0       	ldi	r16, 0x00	; 0
     b48:	10 e0       	ldi	r17, 0x00	; 0
     b4a:	ff ef       	ldi	r31, 0xFF	; 255
     b4c:	ef 1a       	sub	r14, r31
     b4e:	ff 0a       	sbc	r15, r31
     b50:	b0 cf       	rjmp	.-160    	; 0xab2 <evaluate+0x42>
     b52:	8b e8       	ldi	r24, 0x8B	; 139
     b54:	90 e0       	ldi	r25, 0x00	; 0
     b56:	0e 94 24 04 	call	0x848	; 0x848 <LCD_WRITE_STRING>
     b5a:	c6 01       	movw	r24, r12
     b5c:	0e 94 b4 07 	call	0xf68	; 0xf68 <free>
     b60:	2f 96       	adiw	r28, 0x0f	; 15
     b62:	0f b6       	in	r0, 0x3f	; 63
     b64:	f8 94       	cli
     b66:	de bf       	out	0x3e, r29	; 62
     b68:	0f be       	out	0x3f, r0	; 63
     b6a:	cd bf       	out	0x3d, r28	; 61
     b6c:	df 91       	pop	r29
     b6e:	cf 91       	pop	r28
     b70:	1f 91       	pop	r17
     b72:	0f 91       	pop	r16
     b74:	ff 90       	pop	r15
     b76:	ef 90       	pop	r14
     b78:	df 90       	pop	r13
     b7a:	cf 90       	pop	r12
     b7c:	bf 90       	pop	r11
     b7e:	af 90       	pop	r10
     b80:	9f 90       	pop	r9
     b82:	8f 90       	pop	r8
     b84:	08 95       	ret
     b86:	0e 94 7e 06 	call	0xcfc	; 0xcfc <getTop>
     b8a:	bc 01       	movw	r22, r24
     b8c:	99 0f       	add	r25, r25
     b8e:	88 0b       	sbc	r24, r24
     b90:	99 0b       	sbc	r25, r25
     b92:	0e 94 a6 04 	call	0x94c	; 0x94c <LCD_WRITE_INTEGER>
     b96:	e1 cf       	rjmp	.-62     	; 0xb5a <evaluate+0xea>

00000b98 <start>:
     b98:	65 e0       	ldi	r22, 0x05	; 5
     b9a:	81 e0       	ldi	r24, 0x01	; 1
     b9c:	0e 94 01 04 	call	0x802	; 0x802 <LOCATE_CURSOR>
     ba0:	81 e9       	ldi	r24, 0x91	; 145
     ba2:	90 e0       	ldi	r25, 0x00	; 0
     ba4:	0e 94 24 04 	call	0x848	; 0x848 <LCD_WRITE_STRING>
     ba8:	2f ef       	ldi	r18, 0xFF	; 255
     baa:	87 ea       	ldi	r24, 0xA7	; 167
     bac:	91 e6       	ldi	r25, 0x61	; 97
     bae:	21 50       	subi	r18, 0x01	; 1
     bb0:	80 40       	sbci	r24, 0x00	; 0
     bb2:	90 40       	sbci	r25, 0x00	; 0
     bb4:	e1 f7       	brne	.-8      	; 0xbae <start+0x16>
     bb6:	00 c0       	rjmp	.+0      	; 0xbb8 <start+0x20>
     bb8:	00 00       	nop
     bba:	0e 94 30 04 	call	0x860	; 0x860 <LCD_CLR>
     bbe:	0c 94 60 00 	jmp	0xc0	; 0xc0 <BUZZER_SHORT_BEEP>

00000bc2 <main>:
     bc2:	cf 93       	push	r28
     bc4:	df 93       	push	r29
     bc6:	cd b7       	in	r28, 0x3d	; 61
     bc8:	de b7       	in	r29, 0x3e	; 62
     bca:	c0 55       	subi	r28, 0x50	; 80
     bcc:	d1 09       	sbc	r29, r1
     bce:	0f b6       	in	r0, 0x3f	; 63
     bd0:	f8 94       	cli
     bd2:	de bf       	out	0x3e, r29	; 62
     bd4:	0f be       	out	0x3f, r0	; 63
     bd6:	cd bf       	out	0x3d, r28	; 61
     bd8:	0e 94 4e 00 	call	0x9c	; 0x9c <BUZZER_Init>
     bdc:	0e 94 6e 00 	call	0xdc	; 0xdc <BUZZER_BEEP_BEEP>
     be0:	0e 94 68 04 	call	0x8d0	; 0x8d0 <LCD_INIT>
     be4:	0e 94 bb 02 	call	0x576	; 0x576 <KEYPAD_INIT>
     be8:	0e 94 cc 05 	call	0xb98	; 0xb98 <start>
     bec:	00 e0       	ldi	r16, 0x00	; 0
     bee:	10 e0       	ldi	r17, 0x00	; 0
     bf0:	80 e2       	ldi	r24, 0x20	; 32
     bf2:	e8 2e       	mov	r14, r24
     bf4:	0e 94 07 03 	call	0x60e	; 0x60e <keypadGetValue>
     bf8:	f8 2e       	mov	r15, r24
     bfa:	88 23       	and	r24, r24
     bfc:	d9 f3       	breq	.-10     	; 0xbf4 <main+0x32>
     bfe:	0e 94 60 00 	call	0xc0	; 0xc0 <BUZZER_SHORT_BEEP>
     c02:	89 81       	ldd	r24, Y+1	; 0x01
     c04:	9d e3       	ldi	r25, 0x3D	; 61
     c06:	f9 16       	cp	r15, r25
     c08:	89 f0       	breq	.+34     	; 0xc2c <main+0x6a>
     c0a:	93 e6       	ldi	r25, 0x63	; 99
     c0c:	f9 12       	cpse	r15, r25
     c0e:	1a c0       	rjmp	.+52     	; 0xc44 <main+0x82>
     c10:	81 11       	cpse	r24, r1
     c12:	03 c0       	rjmp	.+6      	; 0xc1a <main+0x58>
     c14:	0e 94 30 04 	call	0x860	; 0x860 <LCD_CLR>
     c18:	25 c0       	rjmp	.+74     	; 0xc64 <main+0xa2>
     c1a:	e1 e0       	ldi	r30, 0x01	; 1
     c1c:	f0 e0       	ldi	r31, 0x00	; 0
     c1e:	ec 0f       	add	r30, r28
     c20:	fd 1f       	adc	r31, r29
     c22:	e0 0f       	add	r30, r16
     c24:	f1 1f       	adc	r31, r17
     c26:	e0 82       	st	Z, r14
     c28:	80 e2       	ldi	r24, 0x20	; 32
     c2a:	18 c0       	rjmp	.+48     	; 0xc5c <main+0x9a>
     c2c:	88 23       	and	r24, r24
     c2e:	d1 f0       	breq	.+52     	; 0xc64 <main+0xa2>
     c30:	8d e3       	ldi	r24, 0x3D	; 61
     c32:	0e 94 b7 03 	call	0x76e	; 0x76e <LCD_WRITE_CHAR>
     c36:	ce 01       	movw	r24, r28
     c38:	01 96       	adiw	r24, 0x01	; 1
     c3a:	0e 94 38 05 	call	0xa70	; 0xa70 <evaluate>
     c3e:	00 e0       	ldi	r16, 0x00	; 0
     c40:	10 e0       	ldi	r17, 0x00	; 0
     c42:	10 c0       	rjmp	.+32     	; 0xc64 <main+0xa2>
     c44:	81 11       	cpse	r24, r1
     c46:	02 c0       	rjmp	.+4      	; 0xc4c <main+0x8a>
     c48:	0e 94 30 04 	call	0x860	; 0x860 <LCD_CLR>
     c4c:	e1 e0       	ldi	r30, 0x01	; 1
     c4e:	f0 e0       	ldi	r31, 0x00	; 0
     c50:	ec 0f       	add	r30, r28
     c52:	fd 1f       	adc	r31, r29
     c54:	e0 0f       	add	r30, r16
     c56:	f1 1f       	adc	r31, r17
     c58:	f0 82       	st	Z, r15
     c5a:	8f 2d       	mov	r24, r15
     c5c:	0e 94 b7 03 	call	0x76e	; 0x76e <LCD_WRITE_CHAR>
     c60:	0f 5f       	subi	r16, 0xFF	; 255
     c62:	1f 4f       	sbci	r17, 0xFF	; 255
     c64:	e1 e0       	ldi	r30, 0x01	; 1
     c66:	f0 e0       	ldi	r31, 0x00	; 0
     c68:	ec 0f       	add	r30, r28
     c6a:	fd 1f       	adc	r31, r29
     c6c:	e0 0f       	add	r30, r16
     c6e:	f1 1f       	adc	r31, r17
     c70:	10 82       	st	Z, r1
     c72:	c0 cf       	rjmp	.-128    	; 0xbf4 <main+0x32>

00000c74 <push>:
     c74:	0f 93       	push	r16
     c76:	1f 93       	push	r17
     c78:	00 91 67 00 	lds	r16, 0x0067	; 0x800067 <top>
     c7c:	10 91 68 00 	lds	r17, 0x0068	; 0x800068 <top+0x1>
     c80:	20 91 69 00 	lds	r18, 0x0069	; 0x800069 <top+0x2>
     c84:	30 91 6a 00 	lds	r19, 0x006A	; 0x80006a <top+0x3>
     c88:	0f 34       	cpi	r16, 0x4F	; 79
     c8a:	11 05       	cpc	r17, r1
     c8c:	21 05       	cpc	r18, r1
     c8e:	31 05       	cpc	r19, r1
     c90:	c1 f0       	breq	.+48     	; 0xcc2 <push+0x4e>
     c92:	0f 5f       	subi	r16, 0xFF	; 255
     c94:	1f 4f       	sbci	r17, 0xFF	; 255
     c96:	2f 4f       	sbci	r18, 0xFF	; 255
     c98:	3f 4f       	sbci	r19, 0xFF	; 255
     c9a:	00 93 67 00 	sts	0x0067, r16	; 0x800067 <top>
     c9e:	10 93 68 00 	sts	0x0068, r17	; 0x800068 <top+0x1>
     ca2:	20 93 69 00 	sts	0x0069, r18	; 0x800069 <top+0x2>
     ca6:	30 93 6a 00 	sts	0x006A, r19	; 0x80006a <top+0x3>
     caa:	98 01       	movw	r18, r16
     cac:	22 0f       	add	r18, r18
     cae:	33 1f       	adc	r19, r19
     cb0:	22 0f       	add	r18, r18
     cb2:	33 1f       	adc	r19, r19
     cb4:	f9 01       	movw	r30, r18
     cb6:	e4 56       	subi	r30, 0x64	; 100
     cb8:	ff 4f       	sbci	r31, 0xFF	; 255
     cba:	60 83       	st	Z, r22
     cbc:	71 83       	std	Z+1, r23	; 0x01
     cbe:	82 83       	std	Z+2, r24	; 0x02
     cc0:	93 83       	std	Z+3, r25	; 0x03
     cc2:	1f 91       	pop	r17
     cc4:	0f 91       	pop	r16
     cc6:	08 95       	ret

00000cc8 <pop>:
     cc8:	80 91 67 00 	lds	r24, 0x0067	; 0x800067 <top>
     ccc:	90 91 68 00 	lds	r25, 0x0068	; 0x800068 <top+0x1>
     cd0:	a0 91 69 00 	lds	r26, 0x0069	; 0x800069 <top+0x2>
     cd4:	b0 91 6a 00 	lds	r27, 0x006A	; 0x80006a <top+0x3>
     cd8:	8f 3f       	cpi	r24, 0xFF	; 255
     cda:	2f ef       	ldi	r18, 0xFF	; 255
     cdc:	92 07       	cpc	r25, r18
     cde:	a2 07       	cpc	r26, r18
     ce0:	b2 07       	cpc	r27, r18
     ce2:	59 f0       	breq	.+22     	; 0xcfa <pop+0x32>
     ce4:	01 97       	sbiw	r24, 0x01	; 1
     ce6:	a1 09       	sbc	r26, r1
     ce8:	b1 09       	sbc	r27, r1
     cea:	80 93 67 00 	sts	0x0067, r24	; 0x800067 <top>
     cee:	90 93 68 00 	sts	0x0068, r25	; 0x800068 <top+0x1>
     cf2:	a0 93 69 00 	sts	0x0069, r26	; 0x800069 <top+0x2>
     cf6:	b0 93 6a 00 	sts	0x006A, r27	; 0x80006a <top+0x3>
     cfa:	08 95       	ret

00000cfc <getTop>:
     cfc:	80 91 67 00 	lds	r24, 0x0067	; 0x800067 <top>
     d00:	90 91 68 00 	lds	r25, 0x0068	; 0x800068 <top+0x1>
     d04:	a0 91 69 00 	lds	r26, 0x0069	; 0x800069 <top+0x2>
     d08:	b0 91 6a 00 	lds	r27, 0x006A	; 0x80006a <top+0x3>
     d0c:	8f 3f       	cpi	r24, 0xFF	; 255
     d0e:	2f ef       	ldi	r18, 0xFF	; 255
     d10:	92 07       	cpc	r25, r18
     d12:	a2 07       	cpc	r26, r18
     d14:	b2 07       	cpc	r27, r18
     d16:	61 f0       	breq	.+24     	; 0xd30 <getTop+0x34>
     d18:	88 0f       	add	r24, r24
     d1a:	99 1f       	adc	r25, r25
     d1c:	88 0f       	add	r24, r24
     d1e:	99 1f       	adc	r25, r25
     d20:	fc 01       	movw	r30, r24
     d22:	e4 56       	subi	r30, 0x64	; 100
     d24:	ff 4f       	sbci	r31, 0xFF	; 255
     d26:	60 81       	ld	r22, Z
     d28:	71 81       	ldd	r23, Z+1	; 0x01
     d2a:	82 81       	ldd	r24, Z+2	; 0x02
     d2c:	93 81       	ldd	r25, Z+3	; 0x03
     d2e:	08 95       	ret
     d30:	08 95       	ret

00000d32 <__divmodhi4>:
     d32:	97 fb       	bst	r25, 7
     d34:	07 2e       	mov	r0, r23
     d36:	16 f4       	brtc	.+4      	; 0xd3c <__divmodhi4+0xa>
     d38:	00 94       	com	r0
     d3a:	07 d0       	rcall	.+14     	; 0xd4a <__divmodhi4_neg1>
     d3c:	77 fd       	sbrc	r23, 7
     d3e:	09 d0       	rcall	.+18     	; 0xd52 <__divmodhi4_neg2>
     d40:	0e 94 d7 06 	call	0xdae	; 0xdae <__udivmodhi4>
     d44:	07 fc       	sbrc	r0, 7
     d46:	05 d0       	rcall	.+10     	; 0xd52 <__divmodhi4_neg2>
     d48:	3e f4       	brtc	.+14     	; 0xd58 <__divmodhi4_exit>

00000d4a <__divmodhi4_neg1>:
     d4a:	90 95       	com	r25
     d4c:	81 95       	neg	r24
     d4e:	9f 4f       	sbci	r25, 0xFF	; 255
     d50:	08 95       	ret

00000d52 <__divmodhi4_neg2>:
     d52:	70 95       	com	r23
     d54:	61 95       	neg	r22
     d56:	7f 4f       	sbci	r23, 0xFF	; 255

00000d58 <__divmodhi4_exit>:
     d58:	08 95       	ret

00000d5a <__divmodsi4>:
     d5a:	05 2e       	mov	r0, r21
     d5c:	97 fb       	bst	r25, 7
     d5e:	1e f4       	brtc	.+6      	; 0xd66 <__divmodsi4+0xc>
     d60:	00 94       	com	r0
     d62:	0e 94 c4 06 	call	0xd88	; 0xd88 <__negsi2>
     d66:	57 fd       	sbrc	r21, 7
     d68:	07 d0       	rcall	.+14     	; 0xd78 <__divmodsi4_neg2>
     d6a:	0e 94 eb 06 	call	0xdd6	; 0xdd6 <__udivmodsi4>
     d6e:	07 fc       	sbrc	r0, 7
     d70:	03 d0       	rcall	.+6      	; 0xd78 <__divmodsi4_neg2>
     d72:	4e f4       	brtc	.+18     	; 0xd86 <__divmodsi4_exit>
     d74:	0c 94 c4 06 	jmp	0xd88	; 0xd88 <__negsi2>

00000d78 <__divmodsi4_neg2>:
     d78:	50 95       	com	r21
     d7a:	40 95       	com	r20
     d7c:	30 95       	com	r19
     d7e:	21 95       	neg	r18
     d80:	3f 4f       	sbci	r19, 0xFF	; 255
     d82:	4f 4f       	sbci	r20, 0xFF	; 255
     d84:	5f 4f       	sbci	r21, 0xFF	; 255

00000d86 <__divmodsi4_exit>:
     d86:	08 95       	ret

00000d88 <__negsi2>:
     d88:	90 95       	com	r25
     d8a:	80 95       	com	r24
     d8c:	70 95       	com	r23
     d8e:	61 95       	neg	r22
     d90:	7f 4f       	sbci	r23, 0xFF	; 255
     d92:	8f 4f       	sbci	r24, 0xFF	; 255
     d94:	9f 4f       	sbci	r25, 0xFF	; 255
     d96:	08 95       	ret

00000d98 <__muluhisi3>:
     d98:	0e 94 0d 07 	call	0xe1a	; 0xe1a <__umulhisi3>
     d9c:	a5 9f       	mul	r26, r21
     d9e:	90 0d       	add	r25, r0
     da0:	b4 9f       	mul	r27, r20
     da2:	90 0d       	add	r25, r0
     da4:	a4 9f       	mul	r26, r20
     da6:	80 0d       	add	r24, r0
     da8:	91 1d       	adc	r25, r1
     daa:	11 24       	eor	r1, r1
     dac:	08 95       	ret

00000dae <__udivmodhi4>:
     dae:	aa 1b       	sub	r26, r26
     db0:	bb 1b       	sub	r27, r27
     db2:	51 e1       	ldi	r21, 0x11	; 17
     db4:	07 c0       	rjmp	.+14     	; 0xdc4 <__udivmodhi4_ep>

00000db6 <__udivmodhi4_loop>:
     db6:	aa 1f       	adc	r26, r26
     db8:	bb 1f       	adc	r27, r27
     dba:	a6 17       	cp	r26, r22
     dbc:	b7 07       	cpc	r27, r23
     dbe:	10 f0       	brcs	.+4      	; 0xdc4 <__udivmodhi4_ep>
     dc0:	a6 1b       	sub	r26, r22
     dc2:	b7 0b       	sbc	r27, r23

00000dc4 <__udivmodhi4_ep>:
     dc4:	88 1f       	adc	r24, r24
     dc6:	99 1f       	adc	r25, r25
     dc8:	5a 95       	dec	r21
     dca:	a9 f7       	brne	.-22     	; 0xdb6 <__udivmodhi4_loop>
     dcc:	80 95       	com	r24
     dce:	90 95       	com	r25
     dd0:	bc 01       	movw	r22, r24
     dd2:	cd 01       	movw	r24, r26
     dd4:	08 95       	ret

00000dd6 <__udivmodsi4>:
     dd6:	a1 e2       	ldi	r26, 0x21	; 33
     dd8:	1a 2e       	mov	r1, r26
     dda:	aa 1b       	sub	r26, r26
     ddc:	bb 1b       	sub	r27, r27
     dde:	fd 01       	movw	r30, r26
     de0:	0d c0       	rjmp	.+26     	; 0xdfc <__udivmodsi4_ep>

00000de2 <__udivmodsi4_loop>:
     de2:	aa 1f       	adc	r26, r26
     de4:	bb 1f       	adc	r27, r27
     de6:	ee 1f       	adc	r30, r30
     de8:	ff 1f       	adc	r31, r31
     dea:	a2 17       	cp	r26, r18
     dec:	b3 07       	cpc	r27, r19
     dee:	e4 07       	cpc	r30, r20
     df0:	f5 07       	cpc	r31, r21
     df2:	20 f0       	brcs	.+8      	; 0xdfc <__udivmodsi4_ep>
     df4:	a2 1b       	sub	r26, r18
     df6:	b3 0b       	sbc	r27, r19
     df8:	e4 0b       	sbc	r30, r20
     dfa:	f5 0b       	sbc	r31, r21

00000dfc <__udivmodsi4_ep>:
     dfc:	66 1f       	adc	r22, r22
     dfe:	77 1f       	adc	r23, r23
     e00:	88 1f       	adc	r24, r24
     e02:	99 1f       	adc	r25, r25
     e04:	1a 94       	dec	r1
     e06:	69 f7       	brne	.-38     	; 0xde2 <__udivmodsi4_loop>
     e08:	60 95       	com	r22
     e0a:	70 95       	com	r23
     e0c:	80 95       	com	r24
     e0e:	90 95       	com	r25
     e10:	9b 01       	movw	r18, r22
     e12:	ac 01       	movw	r20, r24
     e14:	bd 01       	movw	r22, r26
     e16:	cf 01       	movw	r24, r30
     e18:	08 95       	ret

00000e1a <__umulhisi3>:
     e1a:	a2 9f       	mul	r26, r18
     e1c:	b0 01       	movw	r22, r0
     e1e:	b3 9f       	mul	r27, r19
     e20:	c0 01       	movw	r24, r0
     e22:	a3 9f       	mul	r26, r19
     e24:	70 0d       	add	r23, r0
     e26:	81 1d       	adc	r24, r1
     e28:	11 24       	eor	r1, r1
     e2a:	91 1d       	adc	r25, r1
     e2c:	b2 9f       	mul	r27, r18
     e2e:	70 0d       	add	r23, r0
     e30:	81 1d       	adc	r24, r1
     e32:	11 24       	eor	r1, r1
     e34:	91 1d       	adc	r25, r1
     e36:	08 95       	ret

00000e38 <malloc>:
     e38:	0f 93       	push	r16
     e3a:	1f 93       	push	r17
     e3c:	cf 93       	push	r28
     e3e:	df 93       	push	r29
     e40:	82 30       	cpi	r24, 0x02	; 2
     e42:	91 05       	cpc	r25, r1
     e44:	10 f4       	brcc	.+4      	; 0xe4a <malloc+0x12>
     e46:	82 e0       	ldi	r24, 0x02	; 2
     e48:	90 e0       	ldi	r25, 0x00	; 0
     e4a:	e0 91 de 01 	lds	r30, 0x01DE	; 0x8001de <__flp>
     e4e:	f0 91 df 01 	lds	r31, 0x01DF	; 0x8001df <__flp+0x1>
     e52:	20 e0       	ldi	r18, 0x00	; 0
     e54:	30 e0       	ldi	r19, 0x00	; 0
     e56:	a0 e0       	ldi	r26, 0x00	; 0
     e58:	b0 e0       	ldi	r27, 0x00	; 0
     e5a:	30 97       	sbiw	r30, 0x00	; 0
     e5c:	19 f1       	breq	.+70     	; 0xea4 <malloc+0x6c>
     e5e:	40 81       	ld	r20, Z
     e60:	51 81       	ldd	r21, Z+1	; 0x01
     e62:	02 81       	ldd	r16, Z+2	; 0x02
     e64:	13 81       	ldd	r17, Z+3	; 0x03
     e66:	48 17       	cp	r20, r24
     e68:	59 07       	cpc	r21, r25
     e6a:	c8 f0       	brcs	.+50     	; 0xe9e <malloc+0x66>
     e6c:	84 17       	cp	r24, r20
     e6e:	95 07       	cpc	r25, r21
     e70:	69 f4       	brne	.+26     	; 0xe8c <malloc+0x54>
     e72:	10 97       	sbiw	r26, 0x00	; 0
     e74:	31 f0       	breq	.+12     	; 0xe82 <malloc+0x4a>
     e76:	12 96       	adiw	r26, 0x02	; 2
     e78:	0c 93       	st	X, r16
     e7a:	12 97       	sbiw	r26, 0x02	; 2
     e7c:	13 96       	adiw	r26, 0x03	; 3
     e7e:	1c 93       	st	X, r17
     e80:	27 c0       	rjmp	.+78     	; 0xed0 <malloc+0x98>
     e82:	00 93 de 01 	sts	0x01DE, r16	; 0x8001de <__flp>
     e86:	10 93 df 01 	sts	0x01DF, r17	; 0x8001df <__flp+0x1>
     e8a:	22 c0       	rjmp	.+68     	; 0xed0 <malloc+0x98>
     e8c:	21 15       	cp	r18, r1
     e8e:	31 05       	cpc	r19, r1
     e90:	19 f0       	breq	.+6      	; 0xe98 <malloc+0x60>
     e92:	42 17       	cp	r20, r18
     e94:	53 07       	cpc	r21, r19
     e96:	18 f4       	brcc	.+6      	; 0xe9e <malloc+0x66>
     e98:	9a 01       	movw	r18, r20
     e9a:	bd 01       	movw	r22, r26
     e9c:	ef 01       	movw	r28, r30
     e9e:	df 01       	movw	r26, r30
     ea0:	f8 01       	movw	r30, r16
     ea2:	db cf       	rjmp	.-74     	; 0xe5a <malloc+0x22>
     ea4:	21 15       	cp	r18, r1
     ea6:	31 05       	cpc	r19, r1
     ea8:	f9 f0       	breq	.+62     	; 0xee8 <malloc+0xb0>
     eaa:	28 1b       	sub	r18, r24
     eac:	39 0b       	sbc	r19, r25
     eae:	24 30       	cpi	r18, 0x04	; 4
     eb0:	31 05       	cpc	r19, r1
     eb2:	80 f4       	brcc	.+32     	; 0xed4 <malloc+0x9c>
     eb4:	8a 81       	ldd	r24, Y+2	; 0x02
     eb6:	9b 81       	ldd	r25, Y+3	; 0x03
     eb8:	61 15       	cp	r22, r1
     eba:	71 05       	cpc	r23, r1
     ebc:	21 f0       	breq	.+8      	; 0xec6 <malloc+0x8e>
     ebe:	fb 01       	movw	r30, r22
     ec0:	93 83       	std	Z+3, r25	; 0x03
     ec2:	82 83       	std	Z+2, r24	; 0x02
     ec4:	04 c0       	rjmp	.+8      	; 0xece <malloc+0x96>
     ec6:	90 93 df 01 	sts	0x01DF, r25	; 0x8001df <__flp+0x1>
     eca:	80 93 de 01 	sts	0x01DE, r24	; 0x8001de <__flp>
     ece:	fe 01       	movw	r30, r28
     ed0:	32 96       	adiw	r30, 0x02	; 2
     ed2:	44 c0       	rjmp	.+136    	; 0xf5c <malloc+0x124>
     ed4:	fe 01       	movw	r30, r28
     ed6:	e2 0f       	add	r30, r18
     ed8:	f3 1f       	adc	r31, r19
     eda:	81 93       	st	Z+, r24
     edc:	91 93       	st	Z+, r25
     ede:	22 50       	subi	r18, 0x02	; 2
     ee0:	31 09       	sbc	r19, r1
     ee2:	39 83       	std	Y+1, r19	; 0x01
     ee4:	28 83       	st	Y, r18
     ee6:	3a c0       	rjmp	.+116    	; 0xf5c <malloc+0x124>
     ee8:	20 91 dc 01 	lds	r18, 0x01DC	; 0x8001dc <__brkval>
     eec:	30 91 dd 01 	lds	r19, 0x01DD	; 0x8001dd <__brkval+0x1>
     ef0:	23 2b       	or	r18, r19
     ef2:	41 f4       	brne	.+16     	; 0xf04 <malloc+0xcc>
     ef4:	20 91 62 00 	lds	r18, 0x0062	; 0x800062 <__malloc_heap_start>
     ef8:	30 91 63 00 	lds	r19, 0x0063	; 0x800063 <__malloc_heap_start+0x1>
     efc:	30 93 dd 01 	sts	0x01DD, r19	; 0x8001dd <__brkval+0x1>
     f00:	20 93 dc 01 	sts	0x01DC, r18	; 0x8001dc <__brkval>
     f04:	20 91 60 00 	lds	r18, 0x0060	; 0x800060 <__DATA_REGION_ORIGIN__>
     f08:	30 91 61 00 	lds	r19, 0x0061	; 0x800061 <__DATA_REGION_ORIGIN__+0x1>
     f0c:	21 15       	cp	r18, r1
     f0e:	31 05       	cpc	r19, r1
     f10:	41 f4       	brne	.+16     	; 0xf22 <malloc+0xea>
     f12:	2d b7       	in	r18, 0x3d	; 61
     f14:	3e b7       	in	r19, 0x3e	; 62
     f16:	40 91 64 00 	lds	r20, 0x0064	; 0x800064 <__malloc_margin>
     f1a:	50 91 65 00 	lds	r21, 0x0065	; 0x800065 <__malloc_margin+0x1>
     f1e:	24 1b       	sub	r18, r20
     f20:	35 0b       	sbc	r19, r21
     f22:	e0 91 dc 01 	lds	r30, 0x01DC	; 0x8001dc <__brkval>
     f26:	f0 91 dd 01 	lds	r31, 0x01DD	; 0x8001dd <__brkval+0x1>
     f2a:	e2 17       	cp	r30, r18
     f2c:	f3 07       	cpc	r31, r19
     f2e:	a0 f4       	brcc	.+40     	; 0xf58 <malloc+0x120>
     f30:	2e 1b       	sub	r18, r30
     f32:	3f 0b       	sbc	r19, r31
     f34:	28 17       	cp	r18, r24
     f36:	39 07       	cpc	r19, r25
     f38:	78 f0       	brcs	.+30     	; 0xf58 <malloc+0x120>
     f3a:	ac 01       	movw	r20, r24
     f3c:	4e 5f       	subi	r20, 0xFE	; 254
     f3e:	5f 4f       	sbci	r21, 0xFF	; 255
     f40:	24 17       	cp	r18, r20
     f42:	35 07       	cpc	r19, r21
     f44:	48 f0       	brcs	.+18     	; 0xf58 <malloc+0x120>
     f46:	4e 0f       	add	r20, r30
     f48:	5f 1f       	adc	r21, r31
     f4a:	50 93 dd 01 	sts	0x01DD, r21	; 0x8001dd <__brkval+0x1>
     f4e:	40 93 dc 01 	sts	0x01DC, r20	; 0x8001dc <__brkval>
     f52:	81 93       	st	Z+, r24
     f54:	91 93       	st	Z+, r25
     f56:	02 c0       	rjmp	.+4      	; 0xf5c <malloc+0x124>
     f58:	e0 e0       	ldi	r30, 0x00	; 0
     f5a:	f0 e0       	ldi	r31, 0x00	; 0
     f5c:	cf 01       	movw	r24, r30
     f5e:	df 91       	pop	r29
     f60:	cf 91       	pop	r28
     f62:	1f 91       	pop	r17
     f64:	0f 91       	pop	r16
     f66:	08 95       	ret

00000f68 <free>:
     f68:	cf 93       	push	r28
     f6a:	df 93       	push	r29
     f6c:	00 97       	sbiw	r24, 0x00	; 0
     f6e:	09 f4       	brne	.+2      	; 0xf72 <free+0xa>
     f70:	81 c0       	rjmp	.+258    	; 0x1074 <free+0x10c>
     f72:	fc 01       	movw	r30, r24
     f74:	32 97       	sbiw	r30, 0x02	; 2
     f76:	13 82       	std	Z+3, r1	; 0x03
     f78:	12 82       	std	Z+2, r1	; 0x02
     f7a:	a0 91 de 01 	lds	r26, 0x01DE	; 0x8001de <__flp>
     f7e:	b0 91 df 01 	lds	r27, 0x01DF	; 0x8001df <__flp+0x1>
     f82:	10 97       	sbiw	r26, 0x00	; 0
     f84:	81 f4       	brne	.+32     	; 0xfa6 <free+0x3e>
     f86:	20 81       	ld	r18, Z
     f88:	31 81       	ldd	r19, Z+1	; 0x01
     f8a:	82 0f       	add	r24, r18
     f8c:	93 1f       	adc	r25, r19
     f8e:	20 91 dc 01 	lds	r18, 0x01DC	; 0x8001dc <__brkval>
     f92:	30 91 dd 01 	lds	r19, 0x01DD	; 0x8001dd <__brkval+0x1>
     f96:	28 17       	cp	r18, r24
     f98:	39 07       	cpc	r19, r25
     f9a:	51 f5       	brne	.+84     	; 0xff0 <free+0x88>
     f9c:	f0 93 dd 01 	sts	0x01DD, r31	; 0x8001dd <__brkval+0x1>
     fa0:	e0 93 dc 01 	sts	0x01DC, r30	; 0x8001dc <__brkval>
     fa4:	67 c0       	rjmp	.+206    	; 0x1074 <free+0x10c>
     fa6:	ed 01       	movw	r28, r26
     fa8:	20 e0       	ldi	r18, 0x00	; 0
     faa:	30 e0       	ldi	r19, 0x00	; 0
     fac:	ce 17       	cp	r28, r30
     fae:	df 07       	cpc	r29, r31
     fb0:	40 f4       	brcc	.+16     	; 0xfc2 <free+0x5a>
     fb2:	4a 81       	ldd	r20, Y+2	; 0x02
     fb4:	5b 81       	ldd	r21, Y+3	; 0x03
     fb6:	9e 01       	movw	r18, r28
     fb8:	41 15       	cp	r20, r1
     fba:	51 05       	cpc	r21, r1
     fbc:	f1 f0       	breq	.+60     	; 0xffa <free+0x92>
     fbe:	ea 01       	movw	r28, r20
     fc0:	f5 cf       	rjmp	.-22     	; 0xfac <free+0x44>
     fc2:	d3 83       	std	Z+3, r29	; 0x03
     fc4:	c2 83       	std	Z+2, r28	; 0x02
     fc6:	40 81       	ld	r20, Z
     fc8:	51 81       	ldd	r21, Z+1	; 0x01
     fca:	84 0f       	add	r24, r20
     fcc:	95 1f       	adc	r25, r21
     fce:	c8 17       	cp	r28, r24
     fd0:	d9 07       	cpc	r29, r25
     fd2:	59 f4       	brne	.+22     	; 0xfea <free+0x82>
     fd4:	88 81       	ld	r24, Y
     fd6:	99 81       	ldd	r25, Y+1	; 0x01
     fd8:	84 0f       	add	r24, r20
     fda:	95 1f       	adc	r25, r21
     fdc:	02 96       	adiw	r24, 0x02	; 2
     fde:	91 83       	std	Z+1, r25	; 0x01
     fe0:	80 83       	st	Z, r24
     fe2:	8a 81       	ldd	r24, Y+2	; 0x02
     fe4:	9b 81       	ldd	r25, Y+3	; 0x03
     fe6:	93 83       	std	Z+3, r25	; 0x03
     fe8:	82 83       	std	Z+2, r24	; 0x02
     fea:	21 15       	cp	r18, r1
     fec:	31 05       	cpc	r19, r1
     fee:	29 f4       	brne	.+10     	; 0xffa <free+0x92>
     ff0:	f0 93 df 01 	sts	0x01DF, r31	; 0x8001df <__flp+0x1>
     ff4:	e0 93 de 01 	sts	0x01DE, r30	; 0x8001de <__flp>
     ff8:	3d c0       	rjmp	.+122    	; 0x1074 <free+0x10c>
     ffa:	e9 01       	movw	r28, r18
     ffc:	fb 83       	std	Y+3, r31	; 0x03
     ffe:	ea 83       	std	Y+2, r30	; 0x02
    1000:	49 91       	ld	r20, Y+
    1002:	59 91       	ld	r21, Y+
    1004:	c4 0f       	add	r28, r20
    1006:	d5 1f       	adc	r29, r21
    1008:	ec 17       	cp	r30, r28
    100a:	fd 07       	cpc	r31, r29
    100c:	61 f4       	brne	.+24     	; 0x1026 <free+0xbe>
    100e:	80 81       	ld	r24, Z
    1010:	91 81       	ldd	r25, Z+1	; 0x01
    1012:	84 0f       	add	r24, r20
    1014:	95 1f       	adc	r25, r21
    1016:	02 96       	adiw	r24, 0x02	; 2
    1018:	e9 01       	movw	r28, r18
    101a:	99 83       	std	Y+1, r25	; 0x01
    101c:	88 83       	st	Y, r24
    101e:	82 81       	ldd	r24, Z+2	; 0x02
    1020:	93 81       	ldd	r25, Z+3	; 0x03
    1022:	9b 83       	std	Y+3, r25	; 0x03
    1024:	8a 83       	std	Y+2, r24	; 0x02
    1026:	e0 e0       	ldi	r30, 0x00	; 0
    1028:	f0 e0       	ldi	r31, 0x00	; 0
    102a:	12 96       	adiw	r26, 0x02	; 2
    102c:	8d 91       	ld	r24, X+
    102e:	9c 91       	ld	r25, X
    1030:	13 97       	sbiw	r26, 0x03	; 3
    1032:	00 97       	sbiw	r24, 0x00	; 0
    1034:	19 f0       	breq	.+6      	; 0x103c <free+0xd4>
    1036:	fd 01       	movw	r30, r26
    1038:	dc 01       	movw	r26, r24
    103a:	f7 cf       	rjmp	.-18     	; 0x102a <free+0xc2>
    103c:	8d 91       	ld	r24, X+
    103e:	9c 91       	ld	r25, X
    1040:	11 97       	sbiw	r26, 0x01	; 1
    1042:	9d 01       	movw	r18, r26
    1044:	2e 5f       	subi	r18, 0xFE	; 254
    1046:	3f 4f       	sbci	r19, 0xFF	; 255
    1048:	82 0f       	add	r24, r18
    104a:	93 1f       	adc	r25, r19
    104c:	20 91 dc 01 	lds	r18, 0x01DC	; 0x8001dc <__brkval>
    1050:	30 91 dd 01 	lds	r19, 0x01DD	; 0x8001dd <__brkval+0x1>
    1054:	28 17       	cp	r18, r24
    1056:	39 07       	cpc	r19, r25
    1058:	69 f4       	brne	.+26     	; 0x1074 <free+0x10c>
    105a:	30 97       	sbiw	r30, 0x00	; 0
    105c:	29 f4       	brne	.+10     	; 0x1068 <free+0x100>
    105e:	10 92 df 01 	sts	0x01DF, r1	; 0x8001df <__flp+0x1>
    1062:	10 92 de 01 	sts	0x01DE, r1	; 0x8001de <__flp>
    1066:	02 c0       	rjmp	.+4      	; 0x106c <free+0x104>
    1068:	13 82       	std	Z+3, r1	; 0x03
    106a:	12 82       	std	Z+2, r1	; 0x02
    106c:	b0 93 dd 01 	sts	0x01DD, r27	; 0x8001dd <__brkval+0x1>
    1070:	a0 93 dc 01 	sts	0x01DC, r26	; 0x8001dc <__brkval>
    1074:	df 91       	pop	r29
    1076:	cf 91       	pop	r28
    1078:	08 95       	ret

0000107a <atoi>:
    107a:	fc 01       	movw	r30, r24
    107c:	88 27       	eor	r24, r24
    107e:	99 27       	eor	r25, r25
    1080:	e8 94       	clt
    1082:	21 91       	ld	r18, Z+
    1084:	20 32       	cpi	r18, 0x20	; 32
    1086:	e9 f3       	breq	.-6      	; 0x1082 <atoi+0x8>
    1088:	29 30       	cpi	r18, 0x09	; 9
    108a:	10 f0       	brcs	.+4      	; 0x1090 <atoi+0x16>
    108c:	2e 30       	cpi	r18, 0x0E	; 14
    108e:	c8 f3       	brcs	.-14     	; 0x1082 <atoi+0x8>
    1090:	2b 32       	cpi	r18, 0x2B	; 43
    1092:	41 f0       	breq	.+16     	; 0x10a4 <atoi+0x2a>
    1094:	2d 32       	cpi	r18, 0x2D	; 45
    1096:	39 f4       	brne	.+14     	; 0x10a6 <atoi+0x2c>
    1098:	68 94       	set
    109a:	04 c0       	rjmp	.+8      	; 0x10a4 <atoi+0x2a>
    109c:	0e 94 5b 08 	call	0x10b6	; 0x10b6 <__mulhi_const_10>
    10a0:	82 0f       	add	r24, r18
    10a2:	91 1d       	adc	r25, r1
    10a4:	21 91       	ld	r18, Z+
    10a6:	20 53       	subi	r18, 0x30	; 48
    10a8:	2a 30       	cpi	r18, 0x0A	; 10
    10aa:	c0 f3       	brcs	.-16     	; 0x109c <atoi+0x22>
    10ac:	1e f4       	brtc	.+6      	; 0x10b4 <atoi+0x3a>
    10ae:	90 95       	com	r25
    10b0:	81 95       	neg	r24
    10b2:	9f 4f       	sbci	r25, 0xFF	; 255
    10b4:	08 95       	ret

000010b6 <__mulhi_const_10>:
    10b6:	7a e0       	ldi	r23, 0x0A	; 10
    10b8:	97 9f       	mul	r25, r23
    10ba:	90 2d       	mov	r25, r0
    10bc:	87 9f       	mul	r24, r23
    10be:	80 2d       	mov	r24, r0
    10c0:	91 0d       	add	r25, r1
    10c2:	11 24       	eor	r1, r1
    10c4:	08 95       	ret

000010c6 <_exit>:
    10c6:	f8 94       	cli

000010c8 <__stop_program>:
    10c8:	ff cf       	rjmp	.-2      	; 0x10c8 <__stop_program>
